
cm3.elf:     file format elf32-littlearm


Disassembly of section .text:

00000000 <__Vectors>:
       0:	20010000 	andcs	r0, r1, r0
       4:	00000571 	andeq	r0, r0, r1, ror r5
       8:	000005b1 			; <UNDEFINED> instruction: 0x000005b1
       c:	000005af 	andeq	r0, r0, pc, lsr #11
      10:	000005b1 			; <UNDEFINED> instruction: 0x000005b1
      14:	000005b1 			; <UNDEFINED> instruction: 0x000005b1
      18:	000005b1 			; <UNDEFINED> instruction: 0x000005b1
	...
      2c:	000005b1 			; <UNDEFINED> instruction: 0x000005b1
      30:	000005b1 			; <UNDEFINED> instruction: 0x000005b1
      34:	00000000 	andeq	r0, r0, r0
      38:	000005b1 			; <UNDEFINED> instruction: 0x000005b1
      3c:	000005b1 			; <UNDEFINED> instruction: 0x000005b1
      40:	000005b1 			; <UNDEFINED> instruction: 0x000005b1
      44:	000005b1 			; <UNDEFINED> instruction: 0x000005b1
      48:	000005b1 			; <UNDEFINED> instruction: 0x000005b1
      4c:	000005b1 			; <UNDEFINED> instruction: 0x000005b1
      50:	000005b1 			; <UNDEFINED> instruction: 0x000005b1
      54:	000005b1 			; <UNDEFINED> instruction: 0x000005b1
      58:	000005b1 			; <UNDEFINED> instruction: 0x000005b1
      5c:	000005b1 			; <UNDEFINED> instruction: 0x000005b1
      60:	000005b1 			; <UNDEFINED> instruction: 0x000005b1
      64:	000005b1 			; <UNDEFINED> instruction: 0x000005b1
	...

000003c0 <SystemInit>:
     3c0:	b480      	push	{r7}
     3c2:	af00      	add	r7, sp, #0
     3c4:	4b04      	ldr	r3, [pc, #16]	; (3d8 <__Vectors_Size+0x18>)
     3c6:	4a05      	ldr	r2, [pc, #20]	; (3dc <__Vectors_Size+0x1c>)
     3c8:	609a      	str	r2, [r3, #8]
     3ca:	4b05      	ldr	r3, [pc, #20]	; (3e0 <__Vectors_Size+0x20>)
     3cc:	4a05      	ldr	r2, [pc, #20]	; (3e4 <__Vectors_Size+0x24>)
     3ce:	601a      	str	r2, [r3, #0]
     3d0:	bf00      	nop
     3d2:	46bd      	mov	sp, r7
     3d4:	bc80      	pop	{r7}
     3d6:	4770      	bx	lr
     3d8:	e000ed00 	and	lr, r0, r0, lsl #26
     3dc:	00000000 	andeq	r0, r0, r0
     3e0:	20000070 	andcs	r0, r0, r0, ror r0
     3e4:	017d7840 	cmneq	sp, r0, asr #16

000003e8 <semihost>:
     3e8:	b480      	push	{r7}
     3ea:	b083      	sub	sp, #12
     3ec:	af00      	add	r7, sp, #0
     3ee:	6078      	str	r0, [r7, #4]
     3f0:	6039      	str	r1, [r7, #0]
     3f2:	6878      	ldr	r0, [r7, #4]
     3f4:	6839      	ldr	r1, [r7, #0]
     3f6:	beab      	bkpt	0x00ab
     3f8:	bf00      	nop
     3fa:	370c      	adds	r7, #12
     3fc:	46bd      	mov	sp, r7
     3fe:	bc80      	pop	{r7}
     400:	4770      	bx	lr
	...

00000404 <logPrint>:
     404:	b40f      	push	{r0, r1, r2, r3}
     406:	b580      	push	{r7, lr}
     408:	b0c6      	sub	sp, #280	; 0x118
     40a:	af00      	add	r7, sp, #0
     40c:	f107 0308 	add.w	r3, r7, #8
     410:	4618      	mov	r0, r3
     412:	f44f 7380 	mov.w	r3, #256	; 0x100
     416:	461a      	mov	r2, r3
     418:	2100      	movs	r1, #0
     41a:	f001 f8f7 	bl	160c <memset>
     41e:	2300      	movs	r3, #0
     420:	f8c7 3114 	str.w	r3, [r7, #276]	; 0x114
     424:	f507 7292 	add.w	r2, r7, #292	; 0x124
     428:	1d3b      	adds	r3, r7, #4
     42a:	601a      	str	r2, [r3, #0]
     42c:	f8d7 3120 	ldr.w	r3, [r7, #288]	; 0x120
     430:	f8c7 3110 	str.w	r3, [r7, #272]	; 0x110
     434:	e053      	b.n	4de <logPrint+0xda>
     436:	f8d7 3114 	ldr.w	r3, [r7, #276]	; 0x114
     43a:	f107 0208 	add.w	r2, r7, #8
     43e:	18d0      	adds	r0, r2, r3
     440:	f8d7 3110 	ldr.w	r3, [r7, #272]	; 0x110
     444:	781b      	ldrb	r3, [r3, #0]
     446:	461a      	mov	r2, r3
     448:	4933      	ldr	r1, [pc, #204]	; (518 <logPrint+0x114>)
     44a:	f001 fa07 	bl	185c <siprintf>
     44e:	f8d7 3114 	ldr.w	r3, [r7, #276]	; 0x114
     452:	3301      	adds	r3, #1
     454:	f8c7 3114 	str.w	r3, [r7, #276]	; 0x114
     458:	f8d7 3110 	ldr.w	r3, [r7, #272]	; 0x110
     45c:	3301      	adds	r3, #1
     45e:	f8c7 3110 	str.w	r3, [r7, #272]	; 0x110
     462:	f8d7 3110 	ldr.w	r3, [r7, #272]	; 0x110
     466:	781b      	ldrb	r3, [r3, #0]
     468:	2b25      	cmp	r3, #37	; 0x25
     46a:	d004      	beq.n	476 <logPrint+0x72>
     46c:	f8d7 3110 	ldr.w	r3, [r7, #272]	; 0x110
     470:	781b      	ldrb	r3, [r3, #0]
     472:	2b00      	cmp	r3, #0
     474:	d1df      	bne.n	436 <logPrint+0x32>
     476:	f8d7 3110 	ldr.w	r3, [r7, #272]	; 0x110
     47a:	781b      	ldrb	r3, [r3, #0]
     47c:	2b00      	cmp	r3, #0
     47e:	d034      	beq.n	4ea <logPrint+0xe6>
     480:	f8d7 3110 	ldr.w	r3, [r7, #272]	; 0x110
     484:	3301      	adds	r3, #1
     486:	f8c7 3110 	str.w	r3, [r7, #272]	; 0x110
     48a:	f8d7 3110 	ldr.w	r3, [r7, #272]	; 0x110
     48e:	781b      	ldrb	r3, [r3, #0]
     490:	2b78      	cmp	r3, #120	; 0x78
     492:	d11f      	bne.n	4d4 <logPrint+0xd0>
     494:	1d3b      	adds	r3, r7, #4
     496:	681b      	ldr	r3, [r3, #0]
     498:	1d19      	adds	r1, r3, #4
     49a:	1d3a      	adds	r2, r7, #4
     49c:	6011      	str	r1, [r2, #0]
     49e:	681b      	ldr	r3, [r3, #0]
     4a0:	f8c7 310c 	str.w	r3, [r7, #268]	; 0x10c
     4a4:	2300      	movs	r3, #0
     4a6:	f8c7 3108 	str.w	r3, [r7, #264]	; 0x108
     4aa:	f8d7 3114 	ldr.w	r3, [r7, #276]	; 0x114
     4ae:	f107 0208 	add.w	r2, r7, #8
     4b2:	4413      	add	r3, r2
     4b4:	f8d7 210c 	ldr.w	r2, [r7, #268]	; 0x10c
     4b8:	4918      	ldr	r1, [pc, #96]	; (51c <logPrint+0x118>)
     4ba:	4618      	mov	r0, r3
     4bc:	f001 f9ce 	bl	185c <siprintf>
     4c0:	f8c7 0108 	str.w	r0, [r7, #264]	; 0x108
     4c4:	f8d7 2114 	ldr.w	r2, [r7, #276]	; 0x114
     4c8:	f8d7 3108 	ldr.w	r3, [r7, #264]	; 0x108
     4cc:	4413      	add	r3, r2
     4ce:	f8c7 3114 	str.w	r3, [r7, #276]	; 0x114
     4d2:	bf00      	nop
     4d4:	f8d7 3110 	ldr.w	r3, [r7, #272]	; 0x110
     4d8:	3301      	adds	r3, #1
     4da:	f8c7 3110 	str.w	r3, [r7, #272]	; 0x110
     4de:	f8d7 3110 	ldr.w	r3, [r7, #272]	; 0x110
     4e2:	781b      	ldrb	r3, [r3, #0]
     4e4:	2b00      	cmp	r3, #0
     4e6:	d1bc      	bne.n	462 <logPrint+0x5e>
     4e8:	e000      	b.n	4ec <logPrint+0xe8>
     4ea:	bf00      	nop
     4ec:	f107 0208 	add.w	r2, r7, #8
     4f0:	f8d7 3114 	ldr.w	r3, [r7, #276]	; 0x114
     4f4:	4413      	add	r3, r2
     4f6:	2200      	movs	r2, #0
     4f8:	701a      	strb	r2, [r3, #0]
     4fa:	2204      	movs	r2, #4
     4fc:	f107 0308 	add.w	r3, r7, #8
     500:	4619      	mov	r1, r3
     502:	4610      	mov	r0, r2
     504:	f7ff ff70 	bl	3e8 <semihost>
     508:	bf00      	nop
     50a:	f507 778c 	add.w	r7, r7, #280	; 0x118
     50e:	46bd      	mov	sp, r7
     510:	e8bd 4080 	ldmia.w	sp!, {r7, lr}
     514:	b004      	add	sp, #16
     516:	4770      	bx	lr
     518:	00003248 	andeq	r3, r0, r8, asr #4
     51c:	0000324c 	andeq	r3, r0, ip, asr #4

00000520 <_start>:
     520:	b580      	push	{r7, lr}
     522:	af00      	add	r7, sp, #0
     524:	f000 f804 	bl	530 <main>
     528:	2000      	movs	r0, #0
     52a:	f000 ffe5 	bl	14f8 <exit>
	...

00000530 <main>:
     530:	b580      	push	{r7, lr}
     532:	b084      	sub	sp, #16
     534:	af00      	add	r7, sp, #0
     536:	f04f 5300 	mov.w	r3, #536870912	; 0x20000000
     53a:	603b      	str	r3, [r7, #0]
     53c:	683b      	ldr	r3, [r7, #0]
     53e:	f383 8809 	msr	PSP, r3
     542:	f3ef 8314 	mrs	r3, CONTROL
     546:	607b      	str	r3, [r7, #4]
     548:	6879      	ldr	r1, [r7, #4]
     54a:	f3ef 8309 	mrs	r3, PSP
     54e:	60bb      	str	r3, [r7, #8]
     550:	68ba      	ldr	r2, [r7, #8]
     552:	f3ef 8308 	mrs	r3, MSP
     556:	60fb      	str	r3, [r7, #12]
     558:	68fb      	ldr	r3, [r7, #12]
     55a:	4804      	ldr	r0, [pc, #16]	; (56c <main+0x3c>)
     55c:	f7ff ff52 	bl	404 <logPrint>
     560:	2300      	movs	r3, #0
     562:	4618      	mov	r0, r3
     564:	3710      	adds	r7, #16
     566:	46bd      	mov	sp, r7
     568:	bd80      	pop	{r7, pc}
     56a:	bf00      	nop
     56c:	00003250 	andeq	r3, r0, r0, asr r2

00000570 <Reset_Handler>:
     570:	f7ff ff26 	bl	3c0 <SystemInit>
     574:	4c0f      	ldr	r4, [pc, #60]	; (5b4 <BusFault_Handler+0x4>)
     576:	4d10      	ldr	r5, [pc, #64]	; (5b8 <BusFault_Handler+0x8>)
     578:	42ac      	cmp	r4, r5
     57a:	da09      	bge.n	590 <Reset_Handler+0x20>
     57c:	6821      	ldr	r1, [r4, #0]
     57e:	6862      	ldr	r2, [r4, #4]
     580:	68a3      	ldr	r3, [r4, #8]
     582:	3b04      	subs	r3, #4
     584:	bfa2      	ittt	ge
     586:	58c8      	ldrge	r0, [r1, r3]
     588:	50d0      	strge	r0, [r2, r3]
     58a:	e7fa      	bge.n	582 <Reset_Handler+0x12>
     58c:	340c      	adds	r4, #12
     58e:	e7f3      	b.n	578 <Reset_Handler+0x8>
     590:	4b0a      	ldr	r3, [pc, #40]	; (5bc <BusFault_Handler+0xc>)
     592:	4c0b      	ldr	r4, [pc, #44]	; (5c0 <BusFault_Handler+0x10>)
     594:	42a3      	cmp	r3, r4
     596:	da08      	bge.n	5aa <Reset_Handler+0x3a>
     598:	6819      	ldr	r1, [r3, #0]
     59a:	685a      	ldr	r2, [r3, #4]
     59c:	2000      	movs	r0, #0
     59e:	3a04      	subs	r2, #4
     5a0:	bfa4      	itt	ge
     5a2:	5088      	strge	r0, [r1, r2]
     5a4:	e7fb      	bge.n	59e <Reset_Handler+0x2e>
     5a6:	3308      	adds	r3, #8
     5a8:	e7f4      	b.n	594 <Reset_Handler+0x24>
     5aa:	f7ff ffb9 	bl	520 <_start>

000005ae <HardFault_Handler>:
     5ae:	e7fe      	b.n	5ae <HardFault_Handler>

000005b0 <BusFault_Handler>:
     5b0:	e7fe      	b.n	5b0 <BusFault_Handler>
     5b2:	34080000 	strcc	r0, [r8], #-0
     5b6:	34140000 	ldrcc	r0, [r4], #-0
     5ba:	34140000 	ldrcc	r0, [r4], #-0
     5be:	34140000 	ldrcc	r0, [r4], #-0
	...

000005c4 <selfrel_offset31>:
     5c4:	6803      	ldr	r3, [r0, #0]
     5c6:	005a      	lsls	r2, r3, #1
     5c8:	bf4c      	ite	mi
     5ca:	f043 4300 	orrmi.w	r3, r3, #2147483648	; 0x80000000
     5ce:	f023 4300 	bicpl.w	r3, r3, #2147483648	; 0x80000000
     5d2:	4418      	add	r0, r3
     5d4:	4770      	bx	lr
     5d6:	bf00      	nop

000005d8 <search_EIT_table>:
     5d8:	b361      	cbz	r1, 634 <search_EIT_table+0x5c>
     5da:	e92d 4ff8 	stmdb	sp!, {r3, r4, r5, r6, r7, r8, r9, sl, fp, lr}
     5de:	f101 3aff 	add.w	sl, r1, #4294967295	; 0xffffffff
     5e2:	4690      	mov	r8, r2
     5e4:	4606      	mov	r6, r0
     5e6:	46d1      	mov	r9, sl
     5e8:	2700      	movs	r7, #0
     5ea:	eb07 0409 	add.w	r4, r7, r9
     5ee:	eb04 74d4 	add.w	r4, r4, r4, lsr #31
     5f2:	1064      	asrs	r4, r4, #1
     5f4:	00e5      	lsls	r5, r4, #3
     5f6:	1971      	adds	r1, r6, r5
     5f8:	4608      	mov	r0, r1
     5fa:	f7ff ffe3 	bl	5c4 <selfrel_offset31>
     5fe:	45a2      	cmp	sl, r4
     600:	4683      	mov	fp, r0
     602:	f105 0008 	add.w	r0, r5, #8
     606:	4430      	add	r0, r6
     608:	d009      	beq.n	61e <search_EIT_table+0x46>
     60a:	f7ff ffdb 	bl	5c4 <selfrel_offset31>
     60e:	45c3      	cmp	fp, r8
     610:	f100 30ff 	add.w	r0, r0, #4294967295	; 0xffffffff
     614:	d805      	bhi.n	622 <search_EIT_table+0x4a>
     616:	4540      	cmp	r0, r8
     618:	d209      	bcs.n	62e <search_EIT_table+0x56>
     61a:	1c67      	adds	r7, r4, #1
     61c:	e7e5      	b.n	5ea <search_EIT_table+0x12>
     61e:	45c3      	cmp	fp, r8
     620:	d905      	bls.n	62e <search_EIT_table+0x56>
     622:	42a7      	cmp	r7, r4
     624:	d002      	beq.n	62c <search_EIT_table+0x54>
     626:	f104 39ff 	add.w	r9, r4, #4294967295	; 0xffffffff
     62a:	e7de      	b.n	5ea <search_EIT_table+0x12>
     62c:	2100      	movs	r1, #0
     62e:	4608      	mov	r0, r1
     630:	e8bd 8ff8 	ldmia.w	sp!, {r3, r4, r5, r6, r7, r8, r9, sl, fp, pc}
     634:	4608      	mov	r0, r1
     636:	4770      	bx	lr

00000638 <__gnu_unwind_get_pr_addr>:
     638:	2801      	cmp	r0, #1
     63a:	d007      	beq.n	64c <__gnu_unwind_get_pr_addr+0x14>
     63c:	2802      	cmp	r0, #2
     63e:	d007      	beq.n	650 <__gnu_unwind_get_pr_addr+0x18>
     640:	4b04      	ldr	r3, [pc, #16]	; (654 <__gnu_unwind_get_pr_addr+0x1c>)
     642:	2800      	cmp	r0, #0
     644:	bf0c      	ite	eq
     646:	4618      	moveq	r0, r3
     648:	2000      	movne	r0, #0
     64a:	4770      	bx	lr
     64c:	4802      	ldr	r0, [pc, #8]	; (658 <__gnu_unwind_get_pr_addr+0x20>)
     64e:	4770      	bx	lr
     650:	4802      	ldr	r0, [pc, #8]	; (65c <__gnu_unwind_get_pr_addr+0x24>)
     652:	4770      	bx	lr
     654:	00000d35 	andeq	r0, r0, r5, lsr sp
     658:	00000d39 	andeq	r0, r0, r9, lsr sp
     65c:	00000d3d 	andeq	r0, r0, sp, lsr sp

00000660 <get_eit_entry>:
     660:	b530      	push	{r4, r5, lr}
     662:	4b26      	ldr	r3, [pc, #152]	; (6fc <get_eit_entry+0x9c>)
     664:	b083      	sub	sp, #12
     666:	4604      	mov	r4, r0
     668:	1e8d      	subs	r5, r1, #2
     66a:	b34b      	cbz	r3, 6c0 <get_eit_entry+0x60>
     66c:	a901      	add	r1, sp, #4
     66e:	4628      	mov	r0, r5
     670:	f3af 8000 	nop.w
     674:	b1f0      	cbz	r0, 6b4 <get_eit_entry+0x54>
     676:	9901      	ldr	r1, [sp, #4]
     678:	462a      	mov	r2, r5
     67a:	f7ff ffad 	bl	5d8 <search_EIT_table>
     67e:	4601      	mov	r1, r0
     680:	b1c0      	cbz	r0, 6b4 <get_eit_entry+0x54>
     682:	f7ff ff9f 	bl	5c4 <selfrel_offset31>
     686:	684b      	ldr	r3, [r1, #4]
     688:	64a0      	str	r0, [r4, #72]	; 0x48
     68a:	2b01      	cmp	r3, #1
     68c:	d02f      	beq.n	6ee <get_eit_entry+0x8e>
     68e:	2b00      	cmp	r3, #0
     690:	f101 0004 	add.w	r0, r1, #4
     694:	db27      	blt.n	6e6 <get_eit_entry+0x86>
     696:	f7ff ff95 	bl	5c4 <selfrel_offset31>
     69a:	2300      	movs	r3, #0
     69c:	e9c4 0313 	strd	r0, r3, [r4, #76]	; 0x4c
     6a0:	6803      	ldr	r3, [r0, #0]
     6a2:	2b00      	cmp	r3, #0
     6a4:	db13      	blt.n	6ce <get_eit_entry+0x6e>
     6a6:	f7ff ff8d 	bl	5c4 <selfrel_offset31>
     6aa:	2300      	movs	r3, #0
     6ac:	6120      	str	r0, [r4, #16]
     6ae:	4618      	mov	r0, r3
     6b0:	b003      	add	sp, #12
     6b2:	bd30      	pop	{r4, r5, pc}
     6b4:	2309      	movs	r3, #9
     6b6:	2200      	movs	r2, #0
     6b8:	4618      	mov	r0, r3
     6ba:	6122      	str	r2, [r4, #16]
     6bc:	b003      	add	sp, #12
     6be:	bd30      	pop	{r4, r5, pc}
     6c0:	4b0f      	ldr	r3, [pc, #60]	; (700 <get_eit_entry+0xa0>)
     6c2:	4910      	ldr	r1, [pc, #64]	; (704 <get_eit_entry+0xa4>)
     6c4:	4618      	mov	r0, r3
     6c6:	1ac9      	subs	r1, r1, r3
     6c8:	10c9      	asrs	r1, r1, #3
     6ca:	9101      	str	r1, [sp, #4]
     6cc:	e7d4      	b.n	678 <get_eit_entry+0x18>
     6ce:	f3c3 6003 	ubfx	r0, r3, #24, #4
     6d2:	f7ff ffb1 	bl	638 <__gnu_unwind_get_pr_addr>
     6d6:	2800      	cmp	r0, #0
     6d8:	bf14      	ite	ne
     6da:	2300      	movne	r3, #0
     6dc:	2309      	moveq	r3, #9
     6de:	6120      	str	r0, [r4, #16]
     6e0:	4618      	mov	r0, r3
     6e2:	b003      	add	sp, #12
     6e4:	bd30      	pop	{r4, r5, pc}
     6e6:	2301      	movs	r3, #1
     6e8:	e9c4 0313 	strd	r0, r3, [r4, #76]	; 0x4c
     6ec:	e7d8      	b.n	6a0 <get_eit_entry+0x40>
     6ee:	2305      	movs	r3, #5
     6f0:	2200      	movs	r2, #0
     6f2:	4618      	mov	r0, r3
     6f4:	6122      	str	r2, [r4, #16]
     6f6:	b003      	add	sp, #12
     6f8:	bd30      	pop	{r4, r5, pc}
     6fa:	bf00      	nop
     6fc:	00000000 	andeq	r0, r0, r0
     700:	00003348 	andeq	r3, r0, r8, asr #6
     704:	00003408 	andeq	r3, r0, r8, lsl #8

00000708 <restore_non_core_regs>:
     708:	6803      	ldr	r3, [r0, #0]
     70a:	b510      	push	{r4, lr}
     70c:	07da      	lsls	r2, r3, #31
     70e:	4604      	mov	r4, r0
     710:	d406      	bmi.n	720 <restore_non_core_regs+0x18>
     712:	079b      	lsls	r3, r3, #30
     714:	f100 0048 	add.w	r0, r0, #72	; 0x48
     718:	d509      	bpl.n	72e <restore_non_core_regs+0x26>
     71a:	f000 fc67 	bl	fec <__gnu_Unwind_Restore_VFP_D>
     71e:	6823      	ldr	r3, [r4, #0]
     720:	0759      	lsls	r1, r3, #29
     722:	d509      	bpl.n	738 <restore_non_core_regs+0x30>
     724:	071a      	lsls	r2, r3, #28
     726:	d50e      	bpl.n	746 <restore_non_core_regs+0x3e>
     728:	06db      	lsls	r3, r3, #27
     72a:	d513      	bpl.n	754 <restore_non_core_regs+0x4c>
     72c:	bd10      	pop	{r4, pc}
     72e:	f000 fc55 	bl	fdc <__gnu_Unwind_Restore_VFP>
     732:	6823      	ldr	r3, [r4, #0]
     734:	0759      	lsls	r1, r3, #29
     736:	d4f5      	bmi.n	724 <restore_non_core_regs+0x1c>
     738:	f104 00d0 	add.w	r0, r4, #208	; 0xd0
     73c:	f000 fc5e 	bl	ffc <__gnu_Unwind_Restore_VFP_D_16_to_31>
     740:	6823      	ldr	r3, [r4, #0]
     742:	071a      	lsls	r2, r3, #28
     744:	d4f0      	bmi.n	728 <restore_non_core_regs+0x20>
     746:	f504 70a8 	add.w	r0, r4, #336	; 0x150
     74a:	f000 fc5f 	bl	100c <__gnu_Unwind_Restore_WMMXD>
     74e:	6823      	ldr	r3, [r4, #0]
     750:	06db      	lsls	r3, r3, #27
     752:	d4eb      	bmi.n	72c <restore_non_core_regs+0x24>
     754:	f504 70e8 	add.w	r0, r4, #464	; 0x1d0
     758:	e8bd 4010 	ldmia.w	sp!, {r4, lr}
     75c:	f000 bc9a 	b.w	1094 <__gnu_Unwind_Restore_WMMXC>

00000760 <_Unwind_decode_typeinfo_ptr.isra.0>:
     760:	6803      	ldr	r3, [r0, #0]
     762:	b103      	cbz	r3, 766 <_Unwind_decode_typeinfo_ptr.isra.0+0x6>
     764:	4403      	add	r3, r0
     766:	4618      	mov	r0, r3
     768:	4770      	bx	lr
     76a:	bf00      	nop

0000076c <__gnu_unwind_24bit.isra.1>:
     76c:	2009      	movs	r0, #9
     76e:	4770      	bx	lr

00000770 <_Unwind_DebugHook>:
     770:	4770      	bx	lr
     772:	bf00      	nop

00000774 <unwind_phase2>:
     774:	b570      	push	{r4, r5, r6, lr}
     776:	4604      	mov	r4, r0
     778:	460d      	mov	r5, r1
     77a:	e008      	b.n	78e <unwind_phase2+0x1a>
     77c:	6c2a      	ldr	r2, [r5, #64]	; 0x40
     77e:	6923      	ldr	r3, [r4, #16]
     780:	6162      	str	r2, [r4, #20]
     782:	4621      	mov	r1, r4
     784:	462a      	mov	r2, r5
     786:	2001      	movs	r0, #1
     788:	4798      	blx	r3
     78a:	2808      	cmp	r0, #8
     78c:	d108      	bne.n	7a0 <unwind_phase2+0x2c>
     78e:	6c29      	ldr	r1, [r5, #64]	; 0x40
     790:	4620      	mov	r0, r4
     792:	f7ff ff65 	bl	660 <get_eit_entry>
     796:	4606      	mov	r6, r0
     798:	2800      	cmp	r0, #0
     79a:	d0ef      	beq.n	77c <unwind_phase2+0x8>
     79c:	f000 fea4 	bl	14e8 <abort>
     7a0:	2807      	cmp	r0, #7
     7a2:	d1fb      	bne.n	79c <unwind_phase2+0x28>
     7a4:	4630      	mov	r0, r6
     7a6:	6c29      	ldr	r1, [r5, #64]	; 0x40
     7a8:	f7ff ffe2 	bl	770 <_Unwind_DebugHook>
     7ac:	1d28      	adds	r0, r5, #4
     7ae:	f000 fc09 	bl	fc4 <__restore_core_regs>
     7b2:	bf00      	nop

000007b4 <unwind_phase2_forced>:
     7b4:	e92d 47f0 	stmdb	sp!, {r4, r5, r6, r7, r8, r9, sl, lr}
     7b8:	4605      	mov	r5, r0
     7ba:	f04f 0c00 	mov.w	ip, #0
     7be:	f5ad 7d72 	sub.w	sp, sp, #968	; 0x3c8
     7c2:	ac03      	add	r4, sp, #12
     7c4:	1d0e      	adds	r6, r1, #4
     7c6:	4617      	mov	r7, r2
     7c8:	ce0f      	ldmia	r6!, {r0, r1, r2, r3}
     7ca:	c40f      	stmia	r4!, {r0, r1, r2, r3}
     7cc:	ce0f      	ldmia	r6!, {r0, r1, r2, r3}
     7ce:	c40f      	stmia	r4!, {r0, r1, r2, r3}
     7d0:	ce0f      	ldmia	r6!, {r0, r1, r2, r3}
     7d2:	c40f      	stmia	r4!, {r0, r1, r2, r3}
     7d4:	e896 000f 	ldmia.w	r6, {r0, r1, r2, r3}
     7d8:	f8d5 800c 	ldr.w	r8, [r5, #12]
     7dc:	f8d5 9018 	ldr.w	r9, [r5, #24]
     7e0:	e884 000f 	stmia.w	r4, {r0, r1, r2, r3}
     7e4:	ac02      	add	r4, sp, #8
     7e6:	f8c4 c000 	str.w	ip, [r4]
     7ea:	e021      	b.n	830 <unwind_phase2_forced+0x7c>
     7ec:	6c23      	ldr	r3, [r4, #64]	; 0x40
     7ee:	f44f 72f0 	mov.w	r2, #480	; 0x1e0
     7f2:	616b      	str	r3, [r5, #20]
     7f4:	4621      	mov	r1, r4
     7f6:	a87a      	add	r0, sp, #488	; 0x1e8
     7f8:	f000 fe92 	bl	1520 <memcpy>
     7fc:	692b      	ldr	r3, [r5, #16]
     7fe:	aa7a      	add	r2, sp, #488	; 0x1e8
     800:	4629      	mov	r1, r5
     802:	4630      	mov	r0, r6
     804:	4798      	blx	r3
     806:	9b88      	ldr	r3, [sp, #544]	; 0x220
     808:	e9cd 4900 	strd	r4, r9, [sp]
     80c:	4682      	mov	sl, r0
     80e:	6463      	str	r3, [r4, #68]	; 0x44
     810:	4631      	mov	r1, r6
     812:	462b      	mov	r3, r5
     814:	462a      	mov	r2, r5
     816:	2001      	movs	r0, #1
     818:	47c0      	blx	r8
     81a:	4607      	mov	r7, r0
     81c:	b9f8      	cbnz	r0, 85e <unwind_phase2_forced+0xaa>
     81e:	f44f 72f0 	mov.w	r2, #480	; 0x1e0
     822:	a97a      	add	r1, sp, #488	; 0x1e8
     824:	4620      	mov	r0, r4
     826:	f000 fe7b 	bl	1520 <memcpy>
     82a:	f1ba 0f08 	cmp.w	sl, #8
     82e:	d11c      	bne.n	86a <unwind_phase2_forced+0xb6>
     830:	6c21      	ldr	r1, [r4, #64]	; 0x40
     832:	4628      	mov	r0, r5
     834:	f7ff ff14 	bl	660 <get_eit_entry>
     838:	2f00      	cmp	r7, #0
     83a:	bf08      	it	eq
     83c:	2609      	moveq	r6, #9
     83e:	4607      	mov	r7, r0
     840:	bf18      	it	ne
     842:	260a      	movne	r6, #10
     844:	2800      	cmp	r0, #0
     846:	d0d1      	beq.n	7ec <unwind_phase2_forced+0x38>
     848:	6ba3      	ldr	r3, [r4, #56]	; 0x38
     84a:	f046 0110 	orr.w	r1, r6, #16
     84e:	e9cd 4900 	strd	r4, r9, [sp]
     852:	462a      	mov	r2, r5
     854:	6463      	str	r3, [r4, #68]	; 0x44
     856:	2001      	movs	r0, #1
     858:	462b      	mov	r3, r5
     85a:	47c0      	blx	r8
     85c:	b100      	cbz	r0, 860 <unwind_phase2_forced+0xac>
     85e:	2709      	movs	r7, #9
     860:	4638      	mov	r0, r7
     862:	f50d 7d72 	add.w	sp, sp, #968	; 0x3c8
     866:	e8bd 87f0 	ldmia.w	sp!, {r4, r5, r6, r7, r8, r9, sl, pc}
     86a:	f1ba 0f07 	cmp.w	sl, #7
     86e:	d1f6      	bne.n	85e <unwind_phase2_forced+0xaa>
     870:	4638      	mov	r0, r7
     872:	6c21      	ldr	r1, [r4, #64]	; 0x40
     874:	f7ff ff7c 	bl	770 <_Unwind_DebugHook>
     878:	a803      	add	r0, sp, #12
     87a:	f000 fba3 	bl	fc4 <__restore_core_regs>
     87e:	bf00      	nop

00000880 <_Unwind_GetCFA>:
     880:	6c40      	ldr	r0, [r0, #68]	; 0x44
     882:	4770      	bx	lr

00000884 <__gnu_Unwind_RaiseException>:
     884:	f04f 3cff 	mov.w	ip, #4294967295	; 0xffffffff
     888:	b5f0      	push	{r4, r5, r6, r7, lr}
     88a:	6bcb      	ldr	r3, [r1, #60]	; 0x3c
     88c:	b0f9      	sub	sp, #484	; 0x1e4
     88e:	640b      	str	r3, [r1, #64]	; 0x40
     890:	1d0d      	adds	r5, r1, #4
     892:	ac01      	add	r4, sp, #4
     894:	460f      	mov	r7, r1
     896:	4606      	mov	r6, r0
     898:	cd0f      	ldmia	r5!, {r0, r1, r2, r3}
     89a:	c40f      	stmia	r4!, {r0, r1, r2, r3}
     89c:	cd0f      	ldmia	r5!, {r0, r1, r2, r3}
     89e:	c40f      	stmia	r4!, {r0, r1, r2, r3}
     8a0:	cd0f      	ldmia	r5!, {r0, r1, r2, r3}
     8a2:	c40f      	stmia	r4!, {r0, r1, r2, r3}
     8a4:	e895 000f 	ldmia.w	r5, {r0, r1, r2, r3}
     8a8:	e884 000f 	stmia.w	r4, {r0, r1, r2, r3}
     8ac:	f8cd c000 	str.w	ip, [sp]
     8b0:	e006      	b.n	8c0 <__gnu_Unwind_RaiseException+0x3c>
     8b2:	6933      	ldr	r3, [r6, #16]
     8b4:	466a      	mov	r2, sp
     8b6:	4631      	mov	r1, r6
     8b8:	4798      	blx	r3
     8ba:	2808      	cmp	r0, #8
     8bc:	4604      	mov	r4, r0
     8be:	d108      	bne.n	8d2 <__gnu_Unwind_RaiseException+0x4e>
     8c0:	9910      	ldr	r1, [sp, #64]	; 0x40
     8c2:	4630      	mov	r0, r6
     8c4:	f7ff fecc 	bl	660 <get_eit_entry>
     8c8:	2800      	cmp	r0, #0
     8ca:	d0f2      	beq.n	8b2 <__gnu_Unwind_RaiseException+0x2e>
     8cc:	2009      	movs	r0, #9
     8ce:	b079      	add	sp, #484	; 0x1e4
     8d0:	bdf0      	pop	{r4, r5, r6, r7, pc}
     8d2:	4668      	mov	r0, sp
     8d4:	f7ff ff18 	bl	708 <restore_non_core_regs>
     8d8:	2c06      	cmp	r4, #6
     8da:	d1f7      	bne.n	8cc <__gnu_Unwind_RaiseException+0x48>
     8dc:	4639      	mov	r1, r7
     8de:	4630      	mov	r0, r6
     8e0:	f7ff ff48 	bl	774 <unwind_phase2>

000008e4 <__gnu_Unwind_ForcedUnwind>:
     8e4:	b430      	push	{r4, r5}
     8e6:	6bdd      	ldr	r5, [r3, #60]	; 0x3c
     8e8:	60c1      	str	r1, [r0, #12]
     8ea:	6182      	str	r2, [r0, #24]
     8ec:	4619      	mov	r1, r3
     8ee:	641d      	str	r5, [r3, #64]	; 0x40
     8f0:	2200      	movs	r2, #0
     8f2:	bc30      	pop	{r4, r5}
     8f4:	e75e      	b.n	7b4 <unwind_phase2_forced>
     8f6:	bf00      	nop

000008f8 <__gnu_Unwind_Resume>:
     8f8:	b570      	push	{r4, r5, r6, lr}
     8fa:	6943      	ldr	r3, [r0, #20]
     8fc:	68c6      	ldr	r6, [r0, #12]
     8fe:	640b      	str	r3, [r1, #64]	; 0x40
     900:	b9be      	cbnz	r6, 932 <__gnu_Unwind_Resume+0x3a>
     902:	6903      	ldr	r3, [r0, #16]
     904:	460a      	mov	r2, r1
     906:	4604      	mov	r4, r0
     908:	460d      	mov	r5, r1
     90a:	4601      	mov	r1, r0
     90c:	2002      	movs	r0, #2
     90e:	4798      	blx	r3
     910:	2807      	cmp	r0, #7
     912:	d007      	beq.n	924 <__gnu_Unwind_Resume+0x2c>
     914:	2808      	cmp	r0, #8
     916:	d103      	bne.n	920 <__gnu_Unwind_Resume+0x28>
     918:	4629      	mov	r1, r5
     91a:	4620      	mov	r0, r4
     91c:	f7ff ff2a 	bl	774 <unwind_phase2>
     920:	f000 fde2 	bl	14e8 <abort>
     924:	4630      	mov	r0, r6
     926:	6c29      	ldr	r1, [r5, #64]	; 0x40
     928:	f7ff ff22 	bl	770 <_Unwind_DebugHook>
     92c:	1d28      	adds	r0, r5, #4
     92e:	f000 fb49 	bl	fc4 <__restore_core_regs>
     932:	2201      	movs	r2, #1
     934:	f7ff ff3e 	bl	7b4 <unwind_phase2_forced>
     938:	f000 fdd6 	bl	14e8 <abort>

0000093c <__gnu_Unwind_Resume_or_Rethrow>:
     93c:	68c2      	ldr	r2, [r0, #12]
     93e:	b12a      	cbz	r2, 94c <__gnu_Unwind_Resume_or_Rethrow+0x10>
     940:	b410      	push	{r4}
     942:	6bcc      	ldr	r4, [r1, #60]	; 0x3c
     944:	2200      	movs	r2, #0
     946:	640c      	str	r4, [r1, #64]	; 0x40
     948:	bc10      	pop	{r4}
     94a:	e733      	b.n	7b4 <unwind_phase2_forced>
     94c:	e79a      	b.n	884 <__gnu_Unwind_RaiseException>
     94e:	bf00      	nop

00000950 <_Unwind_Complete>:
     950:	4770      	bx	lr
     952:	bf00      	nop

00000954 <_Unwind_DeleteException>:
     954:	6883      	ldr	r3, [r0, #8]
     956:	b113      	cbz	r3, 95e <_Unwind_DeleteException+0xa>
     958:	4601      	mov	r1, r0
     95a:	2001      	movs	r0, #1
     95c:	4718      	bx	r3
     95e:	4770      	bx	lr

00000960 <_Unwind_VRS_Get>:
     960:	2904      	cmp	r1, #4
     962:	d807      	bhi.n	974 <_Unwind_VRS_Get+0x14>
     964:	e8df f001 	tbb	[pc, r1]
     968:	08060803 	stmdaeq	r6, {r0, r1, fp}
     96c:	b90b0008 	stmdblt	fp, {r3}
     970:	2a0f      	cmp	r2, #15
     972:	d903      	bls.n	97c <_Unwind_VRS_Get+0x1c>
     974:	2002      	movs	r0, #2
     976:	4770      	bx	lr
     978:	2001      	movs	r0, #1
     97a:	4770      	bx	lr
     97c:	eb00 0082 	add.w	r0, r0, r2, lsl #2
     980:	6842      	ldr	r2, [r0, #4]
     982:	4618      	mov	r0, r3
     984:	9b00      	ldr	r3, [sp, #0]
     986:	601a      	str	r2, [r3, #0]
     988:	4770      	bx	lr
     98a:	bf00      	nop

0000098c <_Unwind_GetGR>:
     98c:	2300      	movs	r3, #0
     98e:	b510      	push	{r4, lr}
     990:	b084      	sub	sp, #16
     992:	ac03      	add	r4, sp, #12
     994:	460a      	mov	r2, r1
     996:	9400      	str	r4, [sp, #0]
     998:	4619      	mov	r1, r3
     99a:	f7ff ffe1 	bl	960 <_Unwind_VRS_Get>
     99e:	9803      	ldr	r0, [sp, #12]
     9a0:	b004      	add	sp, #16
     9a2:	bd10      	pop	{r4, pc}

000009a4 <_Unwind_VRS_Set>:
     9a4:	2904      	cmp	r1, #4
     9a6:	d807      	bhi.n	9b8 <_Unwind_VRS_Set+0x14>
     9a8:	e8df f001 	tbb	[pc, r1]
     9ac:	08060803 	stmdaeq	r6, {r0, r1, fp}
     9b0:	b90b0008 	stmdblt	fp, {r3}
     9b4:	2a0f      	cmp	r2, #15
     9b6:	d903      	bls.n	9c0 <_Unwind_VRS_Set+0x1c>
     9b8:	2002      	movs	r0, #2
     9ba:	4770      	bx	lr
     9bc:	2001      	movs	r0, #1
     9be:	4770      	bx	lr
     9c0:	9900      	ldr	r1, [sp, #0]
     9c2:	eb00 0282 	add.w	r2, r0, r2, lsl #2
     9c6:	6809      	ldr	r1, [r1, #0]
     9c8:	4618      	mov	r0, r3
     9ca:	6051      	str	r1, [r2, #4]
     9cc:	4770      	bx	lr
     9ce:	bf00      	nop

000009d0 <_Unwind_SetGR>:
     9d0:	2300      	movs	r3, #0
     9d2:	b510      	push	{r4, lr}
     9d4:	b084      	sub	sp, #16
     9d6:	ac04      	add	r4, sp, #16
     9d8:	f844 2d04 	str.w	r2, [r4, #-4]!
     9dc:	9400      	str	r4, [sp, #0]
     9de:	460a      	mov	r2, r1
     9e0:	4619      	mov	r1, r3
     9e2:	f7ff ffdf 	bl	9a4 <_Unwind_VRS_Set>
     9e6:	b004      	add	sp, #16
     9e8:	bd10      	pop	{r4, pc}
     9ea:	bf00      	nop

000009ec <__gnu_Unwind_Backtrace>:
     9ec:	f04f 3cff 	mov.w	ip, #4294967295	; 0xffffffff
     9f0:	b5f0      	push	{r4, r5, r6, r7, lr}
     9f2:	6bd3      	ldr	r3, [r2, #60]	; 0x3c
     9f4:	f5ad 7d0f 	sub.w	sp, sp, #572	; 0x23c
     9f8:	6413      	str	r3, [r2, #64]	; 0x40
     9fa:	1d15      	adds	r5, r2, #4
     9fc:	ac17      	add	r4, sp, #92	; 0x5c
     9fe:	4607      	mov	r7, r0
     a00:	460e      	mov	r6, r1
     a02:	cd0f      	ldmia	r5!, {r0, r1, r2, r3}
     a04:	c40f      	stmia	r4!, {r0, r1, r2, r3}
     a06:	cd0f      	ldmia	r5!, {r0, r1, r2, r3}
     a08:	c40f      	stmia	r4!, {r0, r1, r2, r3}
     a0a:	cd0f      	ldmia	r5!, {r0, r1, r2, r3}
     a0c:	c40f      	stmia	r4!, {r0, r1, r2, r3}
     a0e:	e895 000f 	ldmia.w	r5, {r0, r1, r2, r3}
     a12:	e884 000f 	stmia.w	r4, {r0, r1, r2, r3}
     a16:	f8cd c058 	str.w	ip, [sp, #88]	; 0x58
     a1a:	e012      	b.n	a42 <__gnu_Unwind_Backtrace+0x56>
     a1c:	210c      	movs	r1, #12
     a1e:	a816      	add	r0, sp, #88	; 0x58
     a20:	466a      	mov	r2, sp
     a22:	f7ff ffd5 	bl	9d0 <_Unwind_SetGR>
     a26:	4631      	mov	r1, r6
     a28:	a816      	add	r0, sp, #88	; 0x58
     a2a:	47b8      	blx	r7
     a2c:	b978      	cbnz	r0, a4e <__gnu_Unwind_Backtrace+0x62>
     a2e:	9b04      	ldr	r3, [sp, #16]
     a30:	aa16      	add	r2, sp, #88	; 0x58
     a32:	4669      	mov	r1, sp
     a34:	2008      	movs	r0, #8
     a36:	4798      	blx	r3
     a38:	2805      	cmp	r0, #5
     a3a:	4604      	mov	r4, r0
     a3c:	d008      	beq.n	a50 <__gnu_Unwind_Backtrace+0x64>
     a3e:	2809      	cmp	r0, #9
     a40:	d005      	beq.n	a4e <__gnu_Unwind_Backtrace+0x62>
     a42:	9926      	ldr	r1, [sp, #152]	; 0x98
     a44:	4668      	mov	r0, sp
     a46:	f7ff fe0b 	bl	660 <get_eit_entry>
     a4a:	2800      	cmp	r0, #0
     a4c:	d0e6      	beq.n	a1c <__gnu_Unwind_Backtrace+0x30>
     a4e:	2409      	movs	r4, #9
     a50:	a816      	add	r0, sp, #88	; 0x58
     a52:	f7ff fe59 	bl	708 <restore_non_core_regs>
     a56:	4620      	mov	r0, r4
     a58:	f50d 7d0f 	add.w	sp, sp, #572	; 0x23c
     a5c:	bdf0      	pop	{r4, r5, r6, r7, pc}
     a5e:	bf00      	nop

00000a60 <__gnu_unwind_pr_common>:
     a60:	e92d 4ff0 	stmdb	sp!, {r4, r5, r6, r7, r8, r9, sl, fp, lr}
     a64:	460d      	mov	r5, r1
     a66:	6cc9      	ldr	r1, [r1, #76]	; 0x4c
     a68:	b089      	sub	sp, #36	; 0x24
     a6a:	1d0c      	adds	r4, r1, #4
     a6c:	4616      	mov	r6, r2
     a6e:	f000 0b03 	and.w	fp, r0, #3
     a72:	680a      	ldr	r2, [r1, #0]
     a74:	461f      	mov	r7, r3
     a76:	9406      	str	r4, [sp, #24]
     a78:	2b00      	cmp	r3, #0
     a7a:	d068      	beq.n	b4e <__gnu_unwind_pr_common+0xee>
     a7c:	2102      	movs	r1, #2
     a7e:	0c13      	lsrs	r3, r2, #16
     a80:	f88d 301d 	strb.w	r3, [sp, #29]
     a84:	0412      	lsls	r2, r2, #16
     a86:	b2db      	uxtb	r3, r3
     a88:	eb04 0483 	add.w	r4, r4, r3, lsl #2
     a8c:	9205      	str	r2, [sp, #20]
     a8e:	f88d 101c 	strb.w	r1, [sp, #28]
     a92:	6d2b      	ldr	r3, [r5, #80]	; 0x50
     a94:	f1bb 0f02 	cmp.w	fp, #2
     a98:	bf08      	it	eq
     a9a:	6bac      	ldreq	r4, [r5, #56]	; 0x38
     a9c:	f013 0301 	ands.w	r3, r3, #1
     aa0:	d146      	bne.n	b30 <__gnu_unwind_pr_common+0xd0>
     aa2:	9301      	str	r3, [sp, #4]
     aa4:	f000 0308 	and.w	r3, r0, #8
     aa8:	9300      	str	r3, [sp, #0]
     aaa:	f8d4 9000 	ldr.w	r9, [r4]
     aae:	f1b9 0f00 	cmp.w	r9, #0
     ab2:	f000 80f3 	beq.w	c9c <__HEAP_SIZE+0x9c>
     ab6:	2f02      	cmp	r7, #2
     ab8:	d045      	beq.n	b46 <__gnu_unwind_pr_common+0xe6>
     aba:	f8b4 9000 	ldrh.w	r9, [r4]
     abe:	f8b4 8002 	ldrh.w	r8, [r4, #2]
     ac2:	3404      	adds	r4, #4
     ac4:	6cab      	ldr	r3, [r5, #72]	; 0x48
     ac6:	f028 0a01 	bic.w	sl, r8, #1
     aca:	210f      	movs	r1, #15
     acc:	4630      	mov	r0, r6
     ace:	449a      	add	sl, r3
     ad0:	f7ff ff5c 	bl	98c <_Unwind_GetGR>
     ad4:	4582      	cmp	sl, r0
     ad6:	d834      	bhi.n	b42 <__gnu_unwind_pr_common+0xe2>
     ad8:	f029 0301 	bic.w	r3, r9, #1
     adc:	4453      	add	r3, sl
     ade:	4283      	cmp	r3, r0
     ae0:	bf94      	ite	ls
     ae2:	2000      	movls	r0, #0
     ae4:	2001      	movhi	r0, #1
     ae6:	ea4f 0848 	mov.w	r8, r8, lsl #1
     aea:	f008 0802 	and.w	r8, r8, #2
     aee:	f009 0901 	and.w	r9, r9, #1
     af2:	ea48 0809 	orr.w	r8, r8, r9
     af6:	f1b8 0f01 	cmp.w	r8, #1
     afa:	d03a      	beq.n	b72 <__gnu_unwind_pr_common+0x112>
     afc:	d331      	bcc.n	b62 <__gnu_unwind_pr_common+0x102>
     afe:	f1b8 0f02 	cmp.w	r8, #2
     b02:	d11a      	bne.n	b3a <__gnu_unwind_pr_common+0xda>
     b04:	6823      	ldr	r3, [r4, #0]
     b06:	f023 4a00 	bic.w	sl, r3, #2147483648	; 0x80000000
     b0a:	f1bb 0f00 	cmp.w	fp, #0
     b0e:	d166      	bne.n	bde <__gnu_unwind_pr_common+0x17e>
     b10:	b130      	cbz	r0, b20 <__gnu_unwind_pr_common+0xc0>
     b12:	9a00      	ldr	r2, [sp, #0]
     b14:	2a00      	cmp	r2, #0
     b16:	d06c      	beq.n	bf2 <__gnu_unwind_pr_common+0x192>
     b18:	f1ba 0f00 	cmp.w	sl, #0
     b1c:	f000 8090 	beq.w	c40 <__HEAP_SIZE+0x40>
     b20:	2b00      	cmp	r3, #0
     b22:	da00      	bge.n	b26 <__gnu_unwind_pr_common+0xc6>
     b24:	3404      	adds	r4, #4
     b26:	f10a 0301 	add.w	r3, sl, #1
     b2a:	eb04 0483 	add.w	r4, r4, r3, lsl #2
     b2e:	e7bc      	b.n	aaa <__gnu_unwind_pr_common+0x4a>
     b30:	4630      	mov	r0, r6
     b32:	a905      	add	r1, sp, #20
     b34:	f000 fb48 	bl	11c8 <__gnu_unwind_execute>
     b38:	b178      	cbz	r0, b5a <__gnu_unwind_pr_common+0xfa>
     b3a:	2009      	movs	r0, #9
     b3c:	b009      	add	sp, #36	; 0x24
     b3e:	e8bd 8ff0 	ldmia.w	sp!, {r4, r5, r6, r7, r8, r9, sl, fp, pc}
     b42:	2000      	movs	r0, #0
     b44:	e7cf      	b.n	ae6 <__gnu_unwind_pr_common+0x86>
     b46:	f8d4 8004 	ldr.w	r8, [r4, #4]
     b4a:	3408      	adds	r4, #8
     b4c:	e7ba      	b.n	ac4 <__gnu_unwind_pr_common+0x64>
     b4e:	2303      	movs	r3, #3
     b50:	0212      	lsls	r2, r2, #8
     b52:	9205      	str	r2, [sp, #20]
     b54:	f8ad 301c 	strh.w	r3, [sp, #28]
     b58:	e79b      	b.n	a92 <__gnu_unwind_pr_common+0x32>
     b5a:	2008      	movs	r0, #8
     b5c:	b009      	add	sp, #36	; 0x24
     b5e:	e8bd 8ff0 	ldmia.w	sp!, {r4, r5, r6, r7, r8, r9, sl, fp, pc}
     b62:	f1bb 0f00 	cmp.w	fp, #0
     b66:	d002      	beq.n	b6e <__gnu_unwind_pr_common+0x10e>
     b68:	2800      	cmp	r0, #0
     b6a:	f040 80b4 	bne.w	cd6 <__HEAP_SIZE+0xd6>
     b6e:	3404      	adds	r4, #4
     b70:	e79b      	b.n	aaa <__gnu_unwind_pr_common+0x4a>
     b72:	f1bb 0f00 	cmp.w	fp, #0
     b76:	d118      	bne.n	baa <__gnu_unwind_pr_common+0x14a>
     b78:	b1a8      	cbz	r0, ba6 <__gnu_unwind_pr_common+0x146>
     b7a:	e9d4 2300 	ldrd	r2, r3, [r4]
     b7e:	1c99      	adds	r1, r3, #2
     b80:	ea4f 72d2 	mov.w	r2, r2, lsr #31
     b84:	d0d9      	beq.n	b3a <__gnu_unwind_pr_common+0xda>
     b86:	f105 0158 	add.w	r1, r5, #88	; 0x58
     b8a:	3301      	adds	r3, #1
     b8c:	9104      	str	r1, [sp, #16]
     b8e:	f000 80b5 	beq.w	cfc <__HEAP_SIZE+0xfc>
     b92:	1d20      	adds	r0, r4, #4
     b94:	f7ff fde4 	bl	760 <_Unwind_decode_typeinfo_ptr.isra.0>
     b98:	ab04      	add	r3, sp, #16
     b9a:	4601      	mov	r1, r0
     b9c:	4628      	mov	r0, r5
     b9e:	f3af 8000 	nop.w
     ba2:	2800      	cmp	r0, #0
     ba4:	d167      	bne.n	c76 <__HEAP_SIZE+0x76>
     ba6:	3408      	adds	r4, #8
     ba8:	e77f      	b.n	aaa <__gnu_unwind_pr_common+0x4a>
     baa:	210d      	movs	r1, #13
     bac:	4630      	mov	r0, r6
     bae:	f8d5 8020 	ldr.w	r8, [r5, #32]
     bb2:	f7ff feeb 	bl	98c <_Unwind_GetGR>
     bb6:	4580      	cmp	r8, r0
     bb8:	d1f5      	bne.n	ba6 <__gnu_unwind_pr_common+0x146>
     bba:	6aab      	ldr	r3, [r5, #40]	; 0x28
     bbc:	429c      	cmp	r4, r3
     bbe:	d1f2      	bne.n	ba6 <__gnu_unwind_pr_common+0x146>
     bc0:	4620      	mov	r0, r4
     bc2:	f7ff fcff 	bl	5c4 <selfrel_offset31>
     bc6:	210f      	movs	r1, #15
     bc8:	4602      	mov	r2, r0
     bca:	4630      	mov	r0, r6
     bcc:	f7ff ff00 	bl	9d0 <_Unwind_SetGR>
     bd0:	4630      	mov	r0, r6
     bd2:	462a      	mov	r2, r5
     bd4:	2100      	movs	r1, #0
     bd6:	f7ff fefb 	bl	9d0 <_Unwind_SetGR>
     bda:	2007      	movs	r0, #7
     bdc:	e7ae      	b.n	b3c <__gnu_unwind_pr_common+0xdc>
     bde:	210d      	movs	r1, #13
     be0:	4630      	mov	r0, r6
     be2:	f8d5 8020 	ldr.w	r8, [r5, #32]
     be6:	f7ff fed1 	bl	98c <_Unwind_GetGR>
     bea:	4580      	cmp	r8, r0
     bec:	d032      	beq.n	c54 <__HEAP_SIZE+0x54>
     bee:	6823      	ldr	r3, [r4, #0]
     bf0:	e796      	b.n	b20 <__gnu_unwind_pr_common+0xc0>
     bf2:	f1ba 0f00 	cmp.w	sl, #0
     bf6:	d023      	beq.n	c40 <__HEAP_SIZE+0x40>
     bf8:	f105 0358 	add.w	r3, r5, #88	; 0x58
     bfc:	f104 0804 	add.w	r8, r4, #4
     c00:	f8cd b008 	str.w	fp, [sp, #8]
     c04:	f8dd 9000 	ldr.w	r9, [sp]
     c08:	46a3      	mov	fp, r4
     c0a:	9703      	str	r7, [sp, #12]
     c0c:	461c      	mov	r4, r3
     c0e:	e002      	b.n	c16 <__HEAP_SIZE+0x16>
     c10:	4557      	cmp	r7, sl
     c12:	46b9      	mov	r9, r7
     c14:	d040      	beq.n	c98 <__HEAP_SIZE+0x98>
     c16:	4640      	mov	r0, r8
     c18:	9404      	str	r4, [sp, #16]
     c1a:	f7ff fda1 	bl	760 <_Unwind_decode_typeinfo_ptr.isra.0>
     c1e:	ab04      	add	r3, sp, #16
     c20:	4601      	mov	r1, r0
     c22:	2200      	movs	r2, #0
     c24:	4628      	mov	r0, r5
     c26:	f3af 8000 	nop.w
     c2a:	f109 0701 	add.w	r7, r9, #1
     c2e:	f108 0804 	add.w	r8, r8, #4
     c32:	2800      	cmp	r0, #0
     c34:	d0ec      	beq.n	c10 <__HEAP_SIZE+0x10>
     c36:	45d1      	cmp	r9, sl
     c38:	465c      	mov	r4, fp
     c3a:	e9dd b702 	ldrd	fp, r7, [sp, #8]
     c3e:	d1d6      	bne.n	bee <__gnu_unwind_pr_common+0x18e>
     c40:	4630      	mov	r0, r6
     c42:	210d      	movs	r1, #13
     c44:	f7ff fea2 	bl	98c <_Unwind_GetGR>
     c48:	9b04      	ldr	r3, [sp, #16]
     c4a:	6228      	str	r0, [r5, #32]
     c4c:	e9c5 3409 	strd	r3, r4, [r5, #36]	; 0x24
     c50:	2006      	movs	r0, #6
     c52:	e773      	b.n	b3c <__gnu_unwind_pr_common+0xdc>
     c54:	6aab      	ldr	r3, [r5, #40]	; 0x28
     c56:	429c      	cmp	r4, r3
     c58:	d1c9      	bne.n	bee <__gnu_unwind_pr_common+0x18e>
     c5a:	2204      	movs	r2, #4
     c5c:	f04f 0800 	mov.w	r8, #0
     c60:	18a3      	adds	r3, r4, r2
     c62:	e9c5 a80a 	strd	sl, r8, [r5, #40]	; 0x28
     c66:	e9c5 230c 	strd	r2, r3, [r5, #48]	; 0x30
     c6a:	6823      	ldr	r3, [r4, #0]
     c6c:	4543      	cmp	r3, r8
     c6e:	db4d      	blt.n	d0c <__HEAP_SIZE+0x10c>
     c70:	2301      	movs	r3, #1
     c72:	9301      	str	r3, [sp, #4]
     c74:	e757      	b.n	b26 <__gnu_unwind_pr_common+0xc6>
     c76:	4680      	mov	r8, r0
     c78:	210d      	movs	r1, #13
     c7a:	4630      	mov	r0, r6
     c7c:	f7ff fe86 	bl	98c <_Unwind_GetGR>
     c80:	f1b8 0f02 	cmp.w	r8, #2
     c84:	6228      	str	r0, [r5, #32]
     c86:	d13e      	bne.n	d06 <__HEAP_SIZE+0x106>
     c88:	462b      	mov	r3, r5
     c8a:	9a04      	ldr	r2, [sp, #16]
     c8c:	f843 2f2c 	str.w	r2, [r3, #44]!
     c90:	626b      	str	r3, [r5, #36]	; 0x24
     c92:	62ac      	str	r4, [r5, #40]	; 0x28
     c94:	2006      	movs	r0, #6
     c96:	e751      	b.n	b3c <__gnu_unwind_pr_common+0xdc>
     c98:	465c      	mov	r4, fp
     c9a:	e7d1      	b.n	c40 <__HEAP_SIZE+0x40>
     c9c:	a905      	add	r1, sp, #20
     c9e:	4630      	mov	r0, r6
     ca0:	f000 fa92 	bl	11c8 <__gnu_unwind_execute>
     ca4:	2800      	cmp	r0, #0
     ca6:	f47f af48 	bne.w	b3a <__gnu_unwind_pr_common+0xda>
     caa:	9b01      	ldr	r3, [sp, #4]
     cac:	2b00      	cmp	r3, #0
     cae:	f43f af54 	beq.w	b5a <__gnu_unwind_pr_common+0xfa>
     cb2:	210f      	movs	r1, #15
     cb4:	4630      	mov	r0, r6
     cb6:	f7ff fe69 	bl	98c <_Unwind_GetGR>
     cba:	210e      	movs	r1, #14
     cbc:	4602      	mov	r2, r0
     cbe:	4630      	mov	r0, r6
     cc0:	f7ff fe86 	bl	9d0 <_Unwind_SetGR>
     cc4:	4630      	mov	r0, r6
     cc6:	4a1a      	ldr	r2, [pc, #104]	; (d30 <__HEAP_SIZE+0x130>)
     cc8:	210f      	movs	r1, #15
     cca:	f7ff fe81 	bl	9d0 <_Unwind_SetGR>
     cce:	2007      	movs	r0, #7
     cd0:	b009      	add	sp, #36	; 0x24
     cd2:	e8bd 8ff0 	ldmia.w	sp!, {r4, r5, r6, r7, r8, r9, sl, fp, pc}
     cd6:	4620      	mov	r0, r4
     cd8:	f7ff fc74 	bl	5c4 <selfrel_offset31>
     cdc:	3404      	adds	r4, #4
     cde:	4607      	mov	r7, r0
     ce0:	63ac      	str	r4, [r5, #56]	; 0x38
     ce2:	4628      	mov	r0, r5
     ce4:	f3af 8000 	nop.w
     ce8:	2800      	cmp	r0, #0
     cea:	f43f af26 	beq.w	b3a <__gnu_unwind_pr_common+0xda>
     cee:	4630      	mov	r0, r6
     cf0:	463a      	mov	r2, r7
     cf2:	210f      	movs	r1, #15
     cf4:	f7ff fe6c 	bl	9d0 <_Unwind_SetGR>
     cf8:	2007      	movs	r0, #7
     cfa:	e71f      	b.n	b3c <__gnu_unwind_pr_common+0xdc>
     cfc:	4630      	mov	r0, r6
     cfe:	210d      	movs	r1, #13
     d00:	f7ff fe44 	bl	98c <_Unwind_GetGR>
     d04:	6228      	str	r0, [r5, #32]
     d06:	9b04      	ldr	r3, [sp, #16]
     d08:	626b      	str	r3, [r5, #36]	; 0x24
     d0a:	e7c2      	b.n	c92 <__HEAP_SIZE+0x92>
     d0c:	f10a 0001 	add.w	r0, sl, #1
     d10:	eb04 0080 	add.w	r0, r4, r0, lsl #2
     d14:	f7ff fc56 	bl	5c4 <selfrel_offset31>
     d18:	210f      	movs	r1, #15
     d1a:	4602      	mov	r2, r0
     d1c:	4630      	mov	r0, r6
     d1e:	f7ff fe57 	bl	9d0 <_Unwind_SetGR>
     d22:	4630      	mov	r0, r6
     d24:	462a      	mov	r2, r5
     d26:	4641      	mov	r1, r8
     d28:	f7ff fe52 	bl	9d0 <_Unwind_SetGR>
     d2c:	2007      	movs	r0, #7
     d2e:	e705      	b.n	b3c <__gnu_unwind_pr_common+0xdc>
     d30:	00000000 	andeq	r0, r0, r0

00000d34 <__aeabi_unwind_cpp_pr0>:
     d34:	2300      	movs	r3, #0
     d36:	e693      	b.n	a60 <__gnu_unwind_pr_common>

00000d38 <__aeabi_unwind_cpp_pr1>:
     d38:	2301      	movs	r3, #1
     d3a:	e691      	b.n	a60 <__gnu_unwind_pr_common>

00000d3c <__aeabi_unwind_cpp_pr2>:
     d3c:	2302      	movs	r3, #2
     d3e:	e68f      	b.n	a60 <__gnu_unwind_pr_common>

00000d40 <_Unwind_VRS_Pop>:
     d40:	e92d 41f0 	stmdb	sp!, {r4, r5, r6, r7, r8, lr}
     d44:	4605      	mov	r5, r0
     d46:	b0c4      	sub	sp, #272	; 0x110
     d48:	2904      	cmp	r1, #4
     d4a:	d806      	bhi.n	d5a <_Unwind_VRS_Pop+0x1a>
     d4c:	e8df f001 	tbb	[pc, r1]
     d50:	03052b4d 	movweq	r2, #23373	; 0x5b4d
     d54:	2b030009 	blcs	c0d80 <__ROM_SIZE+0x80d80>
     d58:	d05f      	beq.n	e1a <_Unwind_VRS_Pop+0xda>
     d5a:	2002      	movs	r0, #2
     d5c:	b044      	add	sp, #272	; 0x110
     d5e:	e8bd 81f0 	ldmia.w	sp!, {r4, r5, r6, r7, r8, pc}
     d62:	2b00      	cmp	r3, #0
     d64:	d1f9      	bne.n	d5a <_Unwind_VRS_Pop+0x1a>
     d66:	2a10      	cmp	r2, #16
     d68:	d8f7      	bhi.n	d5a <_Unwind_VRS_Pop+0x1a>
     d6a:	682b      	ldr	r3, [r5, #0]
     d6c:	06dc      	lsls	r4, r3, #27
     d6e:	f100 80f6 	bmi.w	f5e <_Unwind_VRS_Pop+0x21e>
     d72:	ac22      	add	r4, sp, #136	; 0x88
     d74:	4620      	mov	r0, r4
     d76:	9201      	str	r2, [sp, #4]
     d78:	2601      	movs	r6, #1
     d7a:	f000 f995 	bl	10a8 <__gnu_Unwind_Save_WMMXC>
     d7e:	2300      	movs	r3, #0
     d80:	6ba8      	ldr	r0, [r5, #56]	; 0x38
     d82:	9a01      	ldr	r2, [sp, #4]
     d84:	fa06 f103 	lsl.w	r1, r6, r3
     d88:	4211      	tst	r1, r2
     d8a:	d003      	beq.n	d94 <_Unwind_VRS_Pop+0x54>
     d8c:	6801      	ldr	r1, [r0, #0]
     d8e:	3004      	adds	r0, #4
     d90:	f844 1023 	str.w	r1, [r4, r3, lsl #2]
     d94:	3301      	adds	r3, #1
     d96:	2b04      	cmp	r3, #4
     d98:	d1f4      	bne.n	d84 <_Unwind_VRS_Pop+0x44>
     d9a:	63a8      	str	r0, [r5, #56]	; 0x38
     d9c:	4620      	mov	r0, r4
     d9e:	f000 f979 	bl	1094 <__gnu_Unwind_Restore_WMMXC>
     da2:	2000      	movs	r0, #0
     da4:	e7da      	b.n	d5c <_Unwind_VRS_Pop+0x1c>
     da6:	2b01      	cmp	r3, #1
     da8:	ea4f 4612 	mov.w	r6, r2, lsr #16
     dac:	b297      	uxth	r7, r2
     dae:	d054      	beq.n	e5a <_Unwind_VRS_Pop+0x11a>
     db0:	2b05      	cmp	r3, #5
     db2:	d1d2      	bne.n	d5a <_Unwind_VRS_Pop+0x1a>
     db4:	eb06 0807 	add.w	r8, r6, r7
     db8:	f1b8 0f20 	cmp.w	r8, #32
     dbc:	d8cd      	bhi.n	d5a <_Unwind_VRS_Pop+0x1a>
     dbe:	2e0f      	cmp	r6, #15
     dc0:	f240 809b 	bls.w	efa <_Unwind_VRS_Pop+0x1ba>
     dc4:	46b8      	mov	r8, r7
     dc6:	2f00      	cmp	r7, #0
     dc8:	f040 80dd 	bne.w	f86 <_Unwind_VRS_Pop+0x246>
     dcc:	6baa      	ldr	r2, [r5, #56]	; 0x38
     dce:	2e0f      	cmp	r6, #15
     dd0:	63aa      	str	r2, [r5, #56]	; 0x38
     dd2:	f240 80c0 	bls.w	f56 <_Unwind_VRS_Pop+0x216>
     dd6:	f1b8 0f00 	cmp.w	r8, #0
     dda:	d002      	beq.n	de2 <_Unwind_VRS_Pop+0xa2>
     ddc:	a802      	add	r0, sp, #8
     dde:	f000 f90d 	bl	ffc <__gnu_Unwind_Restore_VFP_D_16_to_31>
     de2:	2000      	movs	r0, #0
     de4:	b044      	add	sp, #272	; 0x110
     de6:	e8bd 81f0 	ldmia.w	sp!, {r4, r5, r6, r7, r8, pc}
     dea:	2b00      	cmp	r3, #0
     dec:	d1b5      	bne.n	d5a <_Unwind_VRS_Pop+0x1a>
     dee:	2701      	movs	r7, #1
     df0:	6bac      	ldr	r4, [r5, #56]	; 0x38
     df2:	b296      	uxth	r6, r2
     df4:	1d28      	adds	r0, r5, #4
     df6:	fa07 f103 	lsl.w	r1, r7, r3
     dfa:	4231      	tst	r1, r6
     dfc:	f103 0301 	add.w	r3, r3, #1
     e00:	d002      	beq.n	e08 <_Unwind_VRS_Pop+0xc8>
     e02:	6821      	ldr	r1, [r4, #0]
     e04:	3404      	adds	r4, #4
     e06:	6001      	str	r1, [r0, #0]
     e08:	2b10      	cmp	r3, #16
     e0a:	f100 0004 	add.w	r0, r0, #4
     e0e:	d1f2      	bne.n	df6 <_Unwind_VRS_Pop+0xb6>
     e10:	f412 5000 	ands.w	r0, r2, #8192	; 0x2000
     e14:	d1e5      	bne.n	de2 <_Unwind_VRS_Pop+0xa2>
     e16:	63ac      	str	r4, [r5, #56]	; 0x38
     e18:	e7a0      	b.n	d5c <_Unwind_VRS_Pop+0x1c>
     e1a:	0c16      	lsrs	r6, r2, #16
     e1c:	b297      	uxth	r7, r2
     e1e:	19f3      	adds	r3, r6, r7
     e20:	2b10      	cmp	r3, #16
     e22:	d89a      	bhi.n	d5a <_Unwind_VRS_Pop+0x1a>
     e24:	682b      	ldr	r3, [r5, #0]
     e26:	071a      	lsls	r2, r3, #28
     e28:	d45f      	bmi.n	eea <_Unwind_VRS_Pop+0x1aa>
     e2a:	ac22      	add	r4, sp, #136	; 0x88
     e2c:	4620      	mov	r0, r4
     e2e:	f000 f90f 	bl	1050 <__gnu_Unwind_Save_WMMXD>
     e32:	eb04 01c6 	add.w	r1, r4, r6, lsl #3
     e36:	6ba8      	ldr	r0, [r5, #56]	; 0x38
     e38:	b14f      	cbz	r7, e4e <_Unwind_VRS_Pop+0x10e>
     e3a:	4603      	mov	r3, r0
     e3c:	eb00 00c7 	add.w	r0, r0, r7, lsl #3
     e40:	681a      	ldr	r2, [r3, #0]
     e42:	3304      	adds	r3, #4
     e44:	4283      	cmp	r3, r0
     e46:	f841 2b04 	str.w	r2, [r1], #4
     e4a:	d1f9      	bne.n	e40 <_Unwind_VRS_Pop+0x100>
     e4c:	4618      	mov	r0, r3
     e4e:	63a8      	str	r0, [r5, #56]	; 0x38
     e50:	4620      	mov	r0, r4
     e52:	f000 f8db 	bl	100c <__gnu_Unwind_Restore_WMMXD>
     e56:	2000      	movs	r0, #0
     e58:	e780      	b.n	d5c <_Unwind_VRS_Pop+0x1c>
     e5a:	19f2      	adds	r2, r6, r7
     e5c:	2a10      	cmp	r2, #16
     e5e:	f63f af7c 	bhi.w	d5a <_Unwind_VRS_Pop+0x1a>
     e62:	2e0f      	cmp	r6, #15
     e64:	f63f af79 	bhi.w	d5a <_Unwind_VRS_Pop+0x1a>
     e68:	682a      	ldr	r2, [r5, #0]
     e6a:	07d1      	lsls	r1, r2, #31
     e6c:	d508      	bpl.n	e80 <_Unwind_VRS_Pop+0x140>
     e6e:	4628      	mov	r0, r5
     e70:	f022 0203 	bic.w	r2, r2, #3
     e74:	f840 2b48 	str.w	r2, [r0], #72
     e78:	9301      	str	r3, [sp, #4]
     e7a:	f000 f8b3 	bl	fe4 <__gnu_Unwind_Save_VFP>
     e7e:	9b01      	ldr	r3, [sp, #4]
     e80:	ac22      	add	r4, sp, #136	; 0x88
     e82:	4620      	mov	r0, r4
     e84:	9301      	str	r3, [sp, #4]
     e86:	f000 f8ad 	bl	fe4 <__gnu_Unwind_Save_VFP>
     e8a:	6ba9      	ldr	r1, [r5, #56]	; 0x38
     e8c:	9b01      	ldr	r3, [sp, #4]
     e8e:	2f00      	cmp	r7, #0
     e90:	f000 8095 	beq.w	fbe <_Unwind_VRS_Pop+0x27e>
     e94:	f04f 0800 	mov.w	r8, #0
     e98:	007a      	lsls	r2, r7, #1
     e9a:	eb04 04c6 	add.w	r4, r4, r6, lsl #3
     e9e:	3c04      	subs	r4, #4
     ea0:	eb01 0282 	add.w	r2, r1, r2, lsl #2
     ea4:	f851 0b04 	ldr.w	r0, [r1], #4
     ea8:	4291      	cmp	r1, r2
     eaa:	f844 0f04 	str.w	r0, [r4, #4]!
     eae:	d1f9      	bne.n	ea4 <_Unwind_VRS_Pop+0x164>
     eb0:	f1b8 0f00 	cmp.w	r8, #0
     eb4:	d00f      	beq.n	ed6 <_Unwind_VRS_Pop+0x196>
     eb6:	ac02      	add	r4, sp, #8
     eb8:	2e10      	cmp	r6, #16
     eba:	4631      	mov	r1, r6
     ebc:	bf38      	it	cc
     ebe:	2110      	movcc	r1, #16
     ec0:	eb04 01c1 	add.w	r1, r4, r1, lsl #3
     ec4:	3984      	subs	r1, #132	; 0x84
     ec6:	eb02 04c8 	add.w	r4, r2, r8, lsl #3
     eca:	f852 0b04 	ldr.w	r0, [r2], #4
     ece:	4294      	cmp	r4, r2
     ed0:	f841 0f04 	str.w	r0, [r1, #4]!
     ed4:	d1f9      	bne.n	eca <_Unwind_VRS_Pop+0x18a>
     ed6:	2b01      	cmp	r3, #1
     ed8:	f47f af79 	bne.w	dce <_Unwind_VRS_Pop+0x8e>
     edc:	ac22      	add	r4, sp, #136	; 0x88
     ede:	3204      	adds	r2, #4
     ee0:	63aa      	str	r2, [r5, #56]	; 0x38
     ee2:	4620      	mov	r0, r4
     ee4:	f000 f87a 	bl	fdc <__gnu_Unwind_Restore_VFP>
     ee8:	e77b      	b.n	de2 <_Unwind_VRS_Pop+0xa2>
     eea:	f023 0308 	bic.w	r3, r3, #8
     eee:	602b      	str	r3, [r5, #0]
     ef0:	f505 70a8 	add.w	r0, r5, #336	; 0x150
     ef4:	f000 f8ac 	bl	1050 <__gnu_Unwind_Save_WMMXD>
     ef8:	e797      	b.n	e2a <_Unwind_VRS_Pop+0xea>
     efa:	f1b8 0f10 	cmp.w	r8, #16
     efe:	682a      	ldr	r2, [r5, #0]
     f00:	d943      	bls.n	f8a <_Unwind_VRS_Pop+0x24a>
     f02:	07d0      	lsls	r0, r2, #31
     f04:	f1a8 0810 	sub.w	r8, r8, #16
     f08:	d50b      	bpl.n	f22 <_Unwind_VRS_Pop+0x1e2>
     f0a:	4628      	mov	r0, r5
     f0c:	f022 0201 	bic.w	r2, r2, #1
     f10:	f042 0202 	orr.w	r2, r2, #2
     f14:	f840 2b48 	str.w	r2, [r0], #72
     f18:	9301      	str	r3, [sp, #4]
     f1a:	f000 f86b 	bl	ff4 <__gnu_Unwind_Save_VFP_D>
     f1e:	682a      	ldr	r2, [r5, #0]
     f20:	9b01      	ldr	r3, [sp, #4]
     f22:	0751      	lsls	r1, r2, #29
     f24:	d425      	bmi.n	f72 <_Unwind_VRS_Pop+0x232>
     f26:	2e0f      	cmp	r6, #15
     f28:	d804      	bhi.n	f34 <_Unwind_VRS_Pop+0x1f4>
     f2a:	a822      	add	r0, sp, #136	; 0x88
     f2c:	9301      	str	r3, [sp, #4]
     f2e:	f000 f861 	bl	ff4 <__gnu_Unwind_Save_VFP_D>
     f32:	9b01      	ldr	r3, [sp, #4]
     f34:	ac02      	add	r4, sp, #8
     f36:	4620      	mov	r0, r4
     f38:	9301      	str	r3, [sp, #4]
     f3a:	f000 f863 	bl	1004 <__gnu_Unwind_Save_VFP_D_16_to_31>
     f3e:	f1c6 0010 	rsb	r0, r6, #16
     f42:	2800      	cmp	r0, #0
     f44:	6baa      	ldr	r2, [r5, #56]	; 0x38
     f46:	9b01      	ldr	r3, [sp, #4]
     f48:	ddb6      	ble.n	eb8 <_Unwind_VRS_Pop+0x178>
     f4a:	ac22      	add	r4, sp, #136	; 0x88
     f4c:	4611      	mov	r1, r2
     f4e:	eb04 04c6 	add.w	r4, r4, r6, lsl #3
     f52:	0042      	lsls	r2, r0, #1
     f54:	e7a3      	b.n	e9e <_Unwind_VRS_Pop+0x15e>
     f56:	a822      	add	r0, sp, #136	; 0x88
     f58:	f000 f848 	bl	fec <__gnu_Unwind_Restore_VFP_D>
     f5c:	e73b      	b.n	dd6 <_Unwind_VRS_Pop+0x96>
     f5e:	f023 0310 	bic.w	r3, r3, #16
     f62:	602b      	str	r3, [r5, #0]
     f64:	f505 70e8 	add.w	r0, r5, #464	; 0x1d0
     f68:	9201      	str	r2, [sp, #4]
     f6a:	f000 f89d 	bl	10a8 <__gnu_Unwind_Save_WMMXC>
     f6e:	9a01      	ldr	r2, [sp, #4]
     f70:	e6ff      	b.n	d72 <_Unwind_VRS_Pop+0x32>
     f72:	4628      	mov	r0, r5
     f74:	f022 0204 	bic.w	r2, r2, #4
     f78:	f840 2bd0 	str.w	r2, [r0], #208
     f7c:	9301      	str	r3, [sp, #4]
     f7e:	f000 f841 	bl	1004 <__gnu_Unwind_Save_VFP_D_16_to_31>
     f82:	9b01      	ldr	r3, [sp, #4]
     f84:	e7cf      	b.n	f26 <_Unwind_VRS_Pop+0x1e6>
     f86:	682a      	ldr	r2, [r5, #0]
     f88:	e7cb      	b.n	f22 <_Unwind_VRS_Pop+0x1e2>
     f8a:	07d0      	lsls	r0, r2, #31
     f8c:	d50a      	bpl.n	fa4 <_Unwind_VRS_Pop+0x264>
     f8e:	4628      	mov	r0, r5
     f90:	f022 0201 	bic.w	r2, r2, #1
     f94:	f042 0202 	orr.w	r2, r2, #2
     f98:	f840 2b48 	str.w	r2, [r0], #72
     f9c:	9301      	str	r3, [sp, #4]
     f9e:	f000 f829 	bl	ff4 <__gnu_Unwind_Save_VFP_D>
     fa2:	9b01      	ldr	r3, [sp, #4]
     fa4:	ac22      	add	r4, sp, #136	; 0x88
     fa6:	4620      	mov	r0, r4
     fa8:	9301      	str	r3, [sp, #4]
     faa:	46b8      	mov	r8, r7
     fac:	f000 f822 	bl	ff4 <__gnu_Unwind_Save_VFP_D>
     fb0:	6ba9      	ldr	r1, [r5, #56]	; 0x38
     fb2:	9b01      	ldr	r3, [sp, #4]
     fb4:	2f00      	cmp	r7, #0
     fb6:	f47f af6d 	bne.w	e94 <_Unwind_VRS_Pop+0x154>
     fba:	460a      	mov	r2, r1
     fbc:	e707      	b.n	dce <_Unwind_VRS_Pop+0x8e>
     fbe:	460a      	mov	r2, r1
     fc0:	e78d      	b.n	ede <_Unwind_VRS_Pop+0x19e>
     fc2:	bf00      	nop

00000fc4 <__restore_core_regs>:
     fc4:	f100 0134 	add.w	r1, r0, #52	; 0x34
     fc8:	e891 0038 	ldmia.w	r1, {r3, r4, r5}
     fcc:	469c      	mov	ip, r3
     fce:	46a6      	mov	lr, r4
     fd0:	f84c 5d04 	str.w	r5, [ip, #-4]!
     fd4:	e890 0fff 	ldmia.w	r0, {r0, r1, r2, r3, r4, r5, r6, r7, r8, r9, sl, fp}
     fd8:	46e5      	mov	sp, ip
     fda:	bd00      	pop	{pc}

00000fdc <__gnu_Unwind_Restore_VFP>:
     fdc:	ec90 0b21 	fldmiax	r0, {d0-d15}	;@ Deprecated
     fe0:	4770      	bx	lr
     fe2:	bf00      	nop

00000fe4 <__gnu_Unwind_Save_VFP>:
     fe4:	ec80 0b21 	fstmiax	r0, {d0-d15}	;@ Deprecated
     fe8:	4770      	bx	lr
     fea:	bf00      	nop

00000fec <__gnu_Unwind_Restore_VFP_D>:
     fec:	ec90 0b20 	vldmia	r0, {d0-d15}
     ff0:	4770      	bx	lr
     ff2:	bf00      	nop

00000ff4 <__gnu_Unwind_Save_VFP_D>:
     ff4:	ec80 0b20 	vstmia	r0, {d0-d15}
     ff8:	4770      	bx	lr
     ffa:	bf00      	nop

00000ffc <__gnu_Unwind_Restore_VFP_D_16_to_31>:
     ffc:	ecd0 0b20 	vldmia	r0, {d16-d31}
    1000:	4770      	bx	lr
    1002:	bf00      	nop

00001004 <__gnu_Unwind_Save_VFP_D_16_to_31>:
    1004:	ecc0 0b20 	vstmia	r0, {d16-d31}
    1008:	4770      	bx	lr
    100a:	bf00      	nop

0000100c <__gnu_Unwind_Restore_WMMXD>:
    100c:	ecf0 0102 	ldfe	f0, [r0], #8
    1010:	ecf0 1102 	ldfe	f1, [r0], #8
    1014:	ecf0 2102 	ldfe	f2, [r0], #8
    1018:	ecf0 3102 	ldfe	f3, [r0], #8
    101c:	ecf0 4102 	ldfe	f4, [r0], #8
    1020:	ecf0 5102 	ldfe	f5, [r0], #8
    1024:	ecf0 6102 	ldfe	f6, [r0], #8
    1028:	ecf0 7102 	ldfe	f7, [r0], #8
    102c:	ecf0 8102 	ldfp	f0, [r0], #8
    1030:	ecf0 9102 	ldfp	f1, [r0], #8
    1034:	ecf0 a102 	ldfp	f2, [r0], #8
    1038:	ecf0 b102 	ldfp	f3, [r0], #8
    103c:	ecf0 c102 	ldfp	f4, [r0], #8
    1040:	ecf0 d102 	ldfp	f5, [r0], #8
    1044:	ecf0 e102 	ldfp	f6, [r0], #8
    1048:	ecf0 f102 	ldfp	f7, [r0], #8
    104c:	4770      	bx	lr
    104e:	bf00      	nop

00001050 <__gnu_Unwind_Save_WMMXD>:
    1050:	ece0 0102 	stfe	f0, [r0], #8
    1054:	ece0 1102 	stfe	f1, [r0], #8
    1058:	ece0 2102 	stfe	f2, [r0], #8
    105c:	ece0 3102 	stfe	f3, [r0], #8
    1060:	ece0 4102 	stfe	f4, [r0], #8
    1064:	ece0 5102 	stfe	f5, [r0], #8
    1068:	ece0 6102 	stfe	f6, [r0], #8
    106c:	ece0 7102 	stfe	f7, [r0], #8
    1070:	ece0 8102 	stfp	f0, [r0], #8
    1074:	ece0 9102 	stfp	f1, [r0], #8
    1078:	ece0 a102 	stfp	f2, [r0], #8
    107c:	ece0 b102 	stfp	f3, [r0], #8
    1080:	ece0 c102 	stfp	f4, [r0], #8
    1084:	ece0 d102 	stfp	f5, [r0], #8
    1088:	ece0 e102 	stfp	f6, [r0], #8
    108c:	ece0 f102 	stfp	f7, [r0], #8
    1090:	4770      	bx	lr
    1092:	bf00      	nop

00001094 <__gnu_Unwind_Restore_WMMXC>:
    1094:	fcb0 8101 	ldc2	1, cr8, [r0], #4
    1098:	fcb0 9101 	ldc2	1, cr9, [r0], #4
    109c:	fcb0 a101 	ldc2	1, cr10, [r0], #4
    10a0:	fcb0 b101 	ldc2	1, cr11, [r0], #4
    10a4:	4770      	bx	lr
    10a6:	bf00      	nop

000010a8 <__gnu_Unwind_Save_WMMXC>:
    10a8:	fca0 8101 	stc2	1, cr8, [r0], #4
    10ac:	fca0 9101 	stc2	1, cr9, [r0], #4
    10b0:	fca0 a101 	stc2	1, cr10, [r0], #4
    10b4:	fca0 b101 	stc2	1, cr11, [r0], #4
    10b8:	4770      	bx	lr
    10ba:	bf00      	nop

000010bc <_Unwind_RaiseException>:
    10bc:	46ec      	mov	ip, sp
    10be:	b500      	push	{lr}
    10c0:	e92d 5000 	stmdb	sp!, {ip, lr}
    10c4:	e92d 1fff 	stmdb	sp!, {r0, r1, r2, r3, r4, r5, r6, r7, r8, r9, sl, fp, ip}
    10c8:	f04f 0300 	mov.w	r3, #0
    10cc:	e92d 000c 	stmdb	sp!, {r2, r3}
    10d0:	a901      	add	r1, sp, #4
    10d2:	f7ff fbd7 	bl	884 <__gnu_Unwind_RaiseException>
    10d6:	f8dd e040 	ldr.w	lr, [sp, #64]	; 0x40
    10da:	b012      	add	sp, #72	; 0x48
    10dc:	4770      	bx	lr
    10de:	bf00      	nop

000010e0 <_Unwind_Resume>:
    10e0:	46ec      	mov	ip, sp
    10e2:	b500      	push	{lr}
    10e4:	e92d 5000 	stmdb	sp!, {ip, lr}
    10e8:	e92d 1fff 	stmdb	sp!, {r0, r1, r2, r3, r4, r5, r6, r7, r8, r9, sl, fp, ip}
    10ec:	f04f 0300 	mov.w	r3, #0
    10f0:	e92d 000c 	stmdb	sp!, {r2, r3}
    10f4:	a901      	add	r1, sp, #4
    10f6:	f7ff fbff 	bl	8f8 <__gnu_Unwind_Resume>
    10fa:	f8dd e040 	ldr.w	lr, [sp, #64]	; 0x40
    10fe:	b012      	add	sp, #72	; 0x48
    1100:	4770      	bx	lr
    1102:	bf00      	nop

00001104 <_Unwind_Resume_or_Rethrow>:
    1104:	46ec      	mov	ip, sp
    1106:	b500      	push	{lr}
    1108:	e92d 5000 	stmdb	sp!, {ip, lr}
    110c:	e92d 1fff 	stmdb	sp!, {r0, r1, r2, r3, r4, r5, r6, r7, r8, r9, sl, fp, ip}
    1110:	f04f 0300 	mov.w	r3, #0
    1114:	e92d 000c 	stmdb	sp!, {r2, r3}
    1118:	a901      	add	r1, sp, #4
    111a:	f7ff fc0f 	bl	93c <__gnu_Unwind_Resume_or_Rethrow>
    111e:	f8dd e040 	ldr.w	lr, [sp, #64]	; 0x40
    1122:	b012      	add	sp, #72	; 0x48
    1124:	4770      	bx	lr
    1126:	bf00      	nop

00001128 <_Unwind_ForcedUnwind>:
    1128:	46ec      	mov	ip, sp
    112a:	b500      	push	{lr}
    112c:	e92d 5000 	stmdb	sp!, {ip, lr}
    1130:	e92d 1fff 	stmdb	sp!, {r0, r1, r2, r3, r4, r5, r6, r7, r8, r9, sl, fp, ip}
    1134:	f04f 0300 	mov.w	r3, #0
    1138:	e92d 000c 	stmdb	sp!, {r2, r3}
    113c:	ab01      	add	r3, sp, #4
    113e:	f7ff fbd1 	bl	8e4 <__gnu_Unwind_ForcedUnwind>
    1142:	f8dd e040 	ldr.w	lr, [sp, #64]	; 0x40
    1146:	b012      	add	sp, #72	; 0x48
    1148:	4770      	bx	lr
    114a:	bf00      	nop

0000114c <_Unwind_Backtrace>:
    114c:	46ec      	mov	ip, sp
    114e:	b500      	push	{lr}
    1150:	e92d 5000 	stmdb	sp!, {ip, lr}
    1154:	e92d 1fff 	stmdb	sp!, {r0, r1, r2, r3, r4, r5, r6, r7, r8, r9, sl, fp, ip}
    1158:	f04f 0300 	mov.w	r3, #0
    115c:	e92d 000c 	stmdb	sp!, {r2, r3}
    1160:	aa01      	add	r2, sp, #4
    1162:	f7ff fc43 	bl	9ec <__gnu_Unwind_Backtrace>
    1166:	f8dd e040 	ldr.w	lr, [sp, #64]	; 0x40
    116a:	b012      	add	sp, #72	; 0x48
    116c:	4770      	bx	lr
    116e:	bf00      	nop

00001170 <next_unwind_byte>:
    1170:	7a02      	ldrb	r2, [r0, #8]
    1172:	b97a      	cbnz	r2, 1194 <next_unwind_byte+0x24>
    1174:	7a43      	ldrb	r3, [r0, #9]
    1176:	b1a3      	cbz	r3, 11a2 <next_unwind_byte+0x32>
    1178:	2103      	movs	r1, #3
    117a:	6842      	ldr	r2, [r0, #4]
    117c:	3b01      	subs	r3, #1
    117e:	b410      	push	{r4}
    1180:	7243      	strb	r3, [r0, #9]
    1182:	6813      	ldr	r3, [r2, #0]
    1184:	1d14      	adds	r4, r2, #4
    1186:	7201      	strb	r1, [r0, #8]
    1188:	021a      	lsls	r2, r3, #8
    118a:	6044      	str	r4, [r0, #4]
    118c:	6002      	str	r2, [r0, #0]
    118e:	bc10      	pop	{r4}
    1190:	0e18      	lsrs	r0, r3, #24
    1192:	4770      	bx	lr
    1194:	6803      	ldr	r3, [r0, #0]
    1196:	3a01      	subs	r2, #1
    1198:	7202      	strb	r2, [r0, #8]
    119a:	021a      	lsls	r2, r3, #8
    119c:	6002      	str	r2, [r0, #0]
    119e:	0e18      	lsrs	r0, r3, #24
    11a0:	4770      	bx	lr
    11a2:	20b0      	movs	r0, #176	; 0xb0
    11a4:	4770      	bx	lr
    11a6:	bf00      	nop

000011a8 <_Unwind_GetGR.constprop.0>:
    11a8:	2300      	movs	r3, #0
    11aa:	b500      	push	{lr}
    11ac:	b085      	sub	sp, #20
    11ae:	aa03      	add	r2, sp, #12
    11b0:	9200      	str	r2, [sp, #0]
    11b2:	4619      	mov	r1, r3
    11b4:	220c      	movs	r2, #12
    11b6:	f7ff fbd3 	bl	960 <_Unwind_VRS_Get>
    11ba:	9803      	ldr	r0, [sp, #12]
    11bc:	b005      	add	sp, #20
    11be:	f85d fb04 	ldr.w	pc, [sp], #4
    11c2:	bf00      	nop

000011c4 <unwind_UCB_from_context>:
    11c4:	e7f0      	b.n	11a8 <_Unwind_GetGR.constprop.0>
    11c6:	bf00      	nop

000011c8 <__gnu_unwind_execute>:
    11c8:	e92d 43f0 	stmdb	sp!, {r4, r5, r6, r7, r8, r9, lr}
    11cc:	4605      	mov	r5, r0
    11ce:	460e      	mov	r6, r1
    11d0:	f04f 0800 	mov.w	r8, #0
    11d4:	b085      	sub	sp, #20
    11d6:	4630      	mov	r0, r6
    11d8:	f7ff ffca 	bl	1170 <next_unwind_byte>
    11dc:	28b0      	cmp	r0, #176	; 0xb0
    11de:	4604      	mov	r4, r0
    11e0:	f000 80b0 	beq.w	1344 <__gnu_unwind_execute+0x17c>
    11e4:	0607      	lsls	r7, r0, #24
    11e6:	d520      	bpl.n	122a <__gnu_unwind_execute+0x62>
    11e8:	f000 03f0 	and.w	r3, r0, #240	; 0xf0
    11ec:	2b80      	cmp	r3, #128	; 0x80
    11ee:	d065      	beq.n	12bc <__gnu_unwind_execute+0xf4>
    11f0:	2b90      	cmp	r3, #144	; 0x90
    11f2:	d036      	beq.n	1262 <__gnu_unwind_execute+0x9a>
    11f4:	2ba0      	cmp	r3, #160	; 0xa0
    11f6:	d078      	beq.n	12ea <__gnu_unwind_execute+0x122>
    11f8:	2bb0      	cmp	r3, #176	; 0xb0
    11fa:	d047      	beq.n	128c <__gnu_unwind_execute+0xc4>
    11fc:	2bc0      	cmp	r3, #192	; 0xc0
    11fe:	f000 8089 	beq.w	1314 <__gnu_unwind_execute+0x14c>
    1202:	f000 03f8 	and.w	r3, r0, #248	; 0xf8
    1206:	2bd0      	cmp	r3, #208	; 0xd0
    1208:	d10b      	bne.n	1222 <__gnu_unwind_execute+0x5a>
    120a:	f000 0207 	and.w	r2, r0, #7
    120e:	3201      	adds	r2, #1
    1210:	f442 2200 	orr.w	r2, r2, #524288	; 0x80000
    1214:	2305      	movs	r3, #5
    1216:	2101      	movs	r1, #1
    1218:	4628      	mov	r0, r5
    121a:	f7ff fd91 	bl	d40 <_Unwind_VRS_Pop>
    121e:	2800      	cmp	r0, #0
    1220:	d0d9      	beq.n	11d6 <__gnu_unwind_execute+0xe>
    1222:	2009      	movs	r0, #9
    1224:	b005      	add	sp, #20
    1226:	e8bd 83f0 	ldmia.w	sp!, {r4, r5, r6, r7, r8, r9, pc}
    122a:	2300      	movs	r3, #0
    122c:	f10d 090c 	add.w	r9, sp, #12
    1230:	4619      	mov	r1, r3
    1232:	0087      	lsls	r7, r0, #2
    1234:	f8cd 9000 	str.w	r9, [sp]
    1238:	220d      	movs	r2, #13
    123a:	4628      	mov	r0, r5
    123c:	f7ff fb90 	bl	960 <_Unwind_VRS_Get>
    1240:	b2ff      	uxtb	r7, r7
    1242:	9b03      	ldr	r3, [sp, #12]
    1244:	3704      	adds	r7, #4
    1246:	0660      	lsls	r0, r4, #25
    1248:	bf4c      	ite	mi
    124a:	1bdf      	submi	r7, r3, r7
    124c:	18ff      	addpl	r7, r7, r3
    124e:	2300      	movs	r3, #0
    1250:	f8cd 9000 	str.w	r9, [sp]
    1254:	4619      	mov	r1, r3
    1256:	220d      	movs	r2, #13
    1258:	4628      	mov	r0, r5
    125a:	9703      	str	r7, [sp, #12]
    125c:	f7ff fba2 	bl	9a4 <_Unwind_VRS_Set>
    1260:	e7b9      	b.n	11d6 <__gnu_unwind_execute+0xe>
    1262:	f000 030d 	and.w	r3, r0, #13
    1266:	2b0d      	cmp	r3, #13
    1268:	d0db      	beq.n	1222 <__gnu_unwind_execute+0x5a>
    126a:	2300      	movs	r3, #0
    126c:	af03      	add	r7, sp, #12
    126e:	f000 020f 	and.w	r2, r0, #15
    1272:	4619      	mov	r1, r3
    1274:	9700      	str	r7, [sp, #0]
    1276:	4628      	mov	r0, r5
    1278:	f7ff fb72 	bl	960 <_Unwind_VRS_Get>
    127c:	2300      	movs	r3, #0
    127e:	9700      	str	r7, [sp, #0]
    1280:	4619      	mov	r1, r3
    1282:	220d      	movs	r2, #13
    1284:	4628      	mov	r0, r5
    1286:	f7ff fb8d 	bl	9a4 <_Unwind_VRS_Set>
    128a:	e7a4      	b.n	11d6 <__gnu_unwind_execute+0xe>
    128c:	28b1      	cmp	r0, #177	; 0xb1
    128e:	d05e      	beq.n	134e <__gnu_unwind_execute+0x186>
    1290:	28b2      	cmp	r0, #178	; 0xb2
    1292:	f000 80cb 	beq.w	142c <__gnu_unwind_execute+0x264>
    1296:	28b3      	cmp	r0, #179	; 0xb3
    1298:	d07d      	beq.n	1396 <__gnu_unwind_execute+0x1ce>
    129a:	f000 03fc 	and.w	r3, r0, #252	; 0xfc
    129e:	2bb4      	cmp	r3, #180	; 0xb4
    12a0:	d0bf      	beq.n	1222 <__gnu_unwind_execute+0x5a>
    12a2:	2301      	movs	r3, #1
    12a4:	f000 0207 	and.w	r2, r0, #7
    12a8:	441a      	add	r2, r3
    12aa:	f442 2200 	orr.w	r2, r2, #524288	; 0x80000
    12ae:	4619      	mov	r1, r3
    12b0:	4628      	mov	r0, r5
    12b2:	f7ff fd45 	bl	d40 <_Unwind_VRS_Pop>
    12b6:	2800      	cmp	r0, #0
    12b8:	d08d      	beq.n	11d6 <__gnu_unwind_execute+0xe>
    12ba:	e7b2      	b.n	1222 <__gnu_unwind_execute+0x5a>
    12bc:	4630      	mov	r0, r6
    12be:	f7ff ff57 	bl	1170 <next_unwind_byte>
    12c2:	0224      	lsls	r4, r4, #8
    12c4:	4304      	orrs	r4, r0
    12c6:	f5b4 4f00 	cmp.w	r4, #32768	; 0x8000
    12ca:	d0aa      	beq.n	1222 <__gnu_unwind_execute+0x5a>
    12cc:	2300      	movs	r3, #0
    12ce:	0124      	lsls	r4, r4, #4
    12d0:	b2a2      	uxth	r2, r4
    12d2:	4619      	mov	r1, r3
    12d4:	4628      	mov	r0, r5
    12d6:	f7ff fd33 	bl	d40 <_Unwind_VRS_Pop>
    12da:	2800      	cmp	r0, #0
    12dc:	d1a1      	bne.n	1222 <__gnu_unwind_execute+0x5a>
    12de:	f414 4f00 	tst.w	r4, #32768	; 0x8000
    12e2:	bf18      	it	ne
    12e4:	f04f 0801 	movne.w	r8, #1
    12e8:	e775      	b.n	11d6 <__gnu_unwind_execute+0xe>
    12ea:	43c3      	mvns	r3, r0
    12ec:	f44f 627f 	mov.w	r2, #4080	; 0xff0
    12f0:	f003 0307 	and.w	r3, r3, #7
    12f4:	411a      	asrs	r2, r3
    12f6:	2300      	movs	r3, #0
    12f8:	0701      	lsls	r1, r0, #28
    12fa:	f402 627f 	and.w	r2, r2, #4080	; 0xff0
    12fe:	bf48      	it	mi
    1300:	f442 4280 	orrmi.w	r2, r2, #16384	; 0x4000
    1304:	4619      	mov	r1, r3
    1306:	4628      	mov	r0, r5
    1308:	f7ff fd1a 	bl	d40 <_Unwind_VRS_Pop>
    130c:	2800      	cmp	r0, #0
    130e:	f43f af62 	beq.w	11d6 <__gnu_unwind_execute+0xe>
    1312:	e786      	b.n	1222 <__gnu_unwind_execute+0x5a>
    1314:	28c6      	cmp	r0, #198	; 0xc6
    1316:	d051      	beq.n	13bc <__gnu_unwind_execute+0x1f4>
    1318:	28c7      	cmp	r0, #199	; 0xc7
    131a:	d05a      	beq.n	13d2 <__gnu_unwind_execute+0x20a>
    131c:	f000 03f8 	and.w	r3, r0, #248	; 0xf8
    1320:	2bc0      	cmp	r3, #192	; 0xc0
    1322:	d069      	beq.n	13f8 <__gnu_unwind_execute+0x230>
    1324:	28c8      	cmp	r0, #200	; 0xc8
    1326:	d075      	beq.n	1414 <__gnu_unwind_execute+0x24c>
    1328:	28c9      	cmp	r0, #201	; 0xc9
    132a:	f47f af7a 	bne.w	1222 <__gnu_unwind_execute+0x5a>
    132e:	4630      	mov	r0, r6
    1330:	f7ff ff1e 	bl	1170 <next_unwind_byte>
    1334:	0302      	lsls	r2, r0, #12
    1336:	f000 000f 	and.w	r0, r0, #15
    133a:	f402 2270 	and.w	r2, r2, #983040	; 0xf0000
    133e:	3001      	adds	r0, #1
    1340:	4302      	orrs	r2, r0
    1342:	e767      	b.n	1214 <__gnu_unwind_execute+0x4c>
    1344:	f1b8 0f00 	cmp.w	r8, #0
    1348:	d014      	beq.n	1374 <__gnu_unwind_execute+0x1ac>
    134a:	2000      	movs	r0, #0
    134c:	e76a      	b.n	1224 <__gnu_unwind_execute+0x5c>
    134e:	4630      	mov	r0, r6
    1350:	f7ff ff0e 	bl	1170 <next_unwind_byte>
    1354:	2800      	cmp	r0, #0
    1356:	f43f af64 	beq.w	1222 <__gnu_unwind_execute+0x5a>
    135a:	f010 03f0 	ands.w	r3, r0, #240	; 0xf0
    135e:	f47f af60 	bne.w	1222 <__gnu_unwind_execute+0x5a>
    1362:	4602      	mov	r2, r0
    1364:	4619      	mov	r1, r3
    1366:	4628      	mov	r0, r5
    1368:	f7ff fcea 	bl	d40 <_Unwind_VRS_Pop>
    136c:	2800      	cmp	r0, #0
    136e:	f43f af32 	beq.w	11d6 <__gnu_unwind_execute+0xe>
    1372:	e756      	b.n	1222 <__gnu_unwind_execute+0x5a>
    1374:	ac03      	add	r4, sp, #12
    1376:	4643      	mov	r3, r8
    1378:	220e      	movs	r2, #14
    137a:	4641      	mov	r1, r8
    137c:	9400      	str	r4, [sp, #0]
    137e:	4628      	mov	r0, r5
    1380:	f7ff faee 	bl	960 <_Unwind_VRS_Get>
    1384:	9400      	str	r4, [sp, #0]
    1386:	4628      	mov	r0, r5
    1388:	4643      	mov	r3, r8
    138a:	220f      	movs	r2, #15
    138c:	4641      	mov	r1, r8
    138e:	f7ff fb09 	bl	9a4 <_Unwind_VRS_Set>
    1392:	4640      	mov	r0, r8
    1394:	e746      	b.n	1224 <__gnu_unwind_execute+0x5c>
    1396:	4630      	mov	r0, r6
    1398:	f7ff feea 	bl	1170 <next_unwind_byte>
    139c:	2301      	movs	r3, #1
    139e:	0301      	lsls	r1, r0, #12
    13a0:	f000 000f 	and.w	r0, r0, #15
    13a4:	f401 2170 	and.w	r1, r1, #983040	; 0xf0000
    13a8:	18c2      	adds	r2, r0, r3
    13aa:	430a      	orrs	r2, r1
    13ac:	4628      	mov	r0, r5
    13ae:	4619      	mov	r1, r3
    13b0:	f7ff fcc6 	bl	d40 <_Unwind_VRS_Pop>
    13b4:	2800      	cmp	r0, #0
    13b6:	f43f af0e 	beq.w	11d6 <__gnu_unwind_execute+0xe>
    13ba:	e732      	b.n	1222 <__gnu_unwind_execute+0x5a>
    13bc:	4630      	mov	r0, r6
    13be:	f7ff fed7 	bl	1170 <next_unwind_byte>
    13c2:	0301      	lsls	r1, r0, #12
    13c4:	f000 000f 	and.w	r0, r0, #15
    13c8:	2303      	movs	r3, #3
    13ca:	f401 2170 	and.w	r1, r1, #983040	; 0xf0000
    13ce:	1c42      	adds	r2, r0, #1
    13d0:	e7eb      	b.n	13aa <__gnu_unwind_execute+0x1e2>
    13d2:	4630      	mov	r0, r6
    13d4:	f7ff fecc 	bl	1170 <next_unwind_byte>
    13d8:	4602      	mov	r2, r0
    13da:	2800      	cmp	r0, #0
    13dc:	f43f af21 	beq.w	1222 <__gnu_unwind_execute+0x5a>
    13e0:	f010 03f0 	ands.w	r3, r0, #240	; 0xf0
    13e4:	f47f af1d 	bne.w	1222 <__gnu_unwind_execute+0x5a>
    13e8:	2104      	movs	r1, #4
    13ea:	4628      	mov	r0, r5
    13ec:	f7ff fca8 	bl	d40 <_Unwind_VRS_Pop>
    13f0:	2800      	cmp	r0, #0
    13f2:	f43f aef0 	beq.w	11d6 <__gnu_unwind_execute+0xe>
    13f6:	e714      	b.n	1222 <__gnu_unwind_execute+0x5a>
    13f8:	2303      	movs	r3, #3
    13fa:	f000 020f 	and.w	r2, r0, #15
    13fe:	3201      	adds	r2, #1
    1400:	f442 2220 	orr.w	r2, r2, #655360	; 0xa0000
    1404:	4619      	mov	r1, r3
    1406:	4628      	mov	r0, r5
    1408:	f7ff fc9a 	bl	d40 <_Unwind_VRS_Pop>
    140c:	2800      	cmp	r0, #0
    140e:	f43f aee2 	beq.w	11d6 <__gnu_unwind_execute+0xe>
    1412:	e706      	b.n	1222 <__gnu_unwind_execute+0x5a>
    1414:	4630      	mov	r0, r6
    1416:	f7ff feab 	bl	1170 <next_unwind_byte>
    141a:	f000 02f0 	and.w	r2, r0, #240	; 0xf0
    141e:	f000 030f 	and.w	r3, r0, #15
    1422:	3210      	adds	r2, #16
    1424:	3301      	adds	r3, #1
    1426:	ea43 3202 	orr.w	r2, r3, r2, lsl #12
    142a:	e6f3      	b.n	1214 <__gnu_unwind_execute+0x4c>
    142c:	2300      	movs	r3, #0
    142e:	f10d 090c 	add.w	r9, sp, #12
    1432:	220d      	movs	r2, #13
    1434:	4619      	mov	r1, r3
    1436:	f8cd 9000 	str.w	r9, [sp]
    143a:	4628      	mov	r0, r5
    143c:	f7ff fa90 	bl	960 <_Unwind_VRS_Get>
    1440:	4630      	mov	r0, r6
    1442:	f7ff fe95 	bl	1170 <next_unwind_byte>
    1446:	0602      	lsls	r2, r0, #24
    1448:	f04f 0702 	mov.w	r7, #2
    144c:	d50c      	bpl.n	1468 <__gnu_unwind_execute+0x2a0>
    144e:	9b03      	ldr	r3, [sp, #12]
    1450:	f000 007f 	and.w	r0, r0, #127	; 0x7f
    1454:	40b8      	lsls	r0, r7
    1456:	4403      	add	r3, r0
    1458:	4630      	mov	r0, r6
    145a:	9303      	str	r3, [sp, #12]
    145c:	f7ff fe88 	bl	1170 <next_unwind_byte>
    1460:	0603      	lsls	r3, r0, #24
    1462:	f107 0707 	add.w	r7, r7, #7
    1466:	d4f2      	bmi.n	144e <__gnu_unwind_execute+0x286>
    1468:	2300      	movs	r3, #0
    146a:	9a03      	ldr	r2, [sp, #12]
    146c:	f000 047f 	and.w	r4, r0, #127	; 0x7f
    1470:	40bc      	lsls	r4, r7
    1472:	f502 7201 	add.w	r2, r2, #516	; 0x204
    1476:	4414      	add	r4, r2
    1478:	f8cd 9000 	str.w	r9, [sp]
    147c:	4619      	mov	r1, r3
    147e:	220d      	movs	r2, #13
    1480:	4628      	mov	r0, r5
    1482:	9403      	str	r4, [sp, #12]
    1484:	f7ff fa8e 	bl	9a4 <_Unwind_VRS_Set>
    1488:	e6a5      	b.n	11d6 <__gnu_unwind_execute+0xe>
    148a:	bf00      	nop

0000148c <__gnu_unwind_frame>:
    148c:	b530      	push	{r4, r5, lr}
    148e:	2403      	movs	r4, #3
    1490:	460d      	mov	r5, r1
    1492:	6cc3      	ldr	r3, [r0, #76]	; 0x4c
    1494:	b085      	sub	sp, #20
    1496:	685a      	ldr	r2, [r3, #4]
    1498:	f88d 400c 	strb.w	r4, [sp, #12]
    149c:	79dc      	ldrb	r4, [r3, #7]
    149e:	0212      	lsls	r2, r2, #8
    14a0:	3308      	adds	r3, #8
    14a2:	a901      	add	r1, sp, #4
    14a4:	4628      	mov	r0, r5
    14a6:	9201      	str	r2, [sp, #4]
    14a8:	f88d 400d 	strb.w	r4, [sp, #13]
    14ac:	9302      	str	r3, [sp, #8]
    14ae:	f7ff fe8b 	bl	11c8 <__gnu_unwind_execute>
    14b2:	b005      	add	sp, #20
    14b4:	bd30      	pop	{r4, r5, pc}
    14b6:	bf00      	nop

000014b8 <_Unwind_GetRegionStart>:
    14b8:	b508      	push	{r3, lr}
    14ba:	f7ff fe83 	bl	11c4 <unwind_UCB_from_context>
    14be:	6c80      	ldr	r0, [r0, #72]	; 0x48
    14c0:	bd08      	pop	{r3, pc}
    14c2:	bf00      	nop

000014c4 <_Unwind_GetLanguageSpecificData>:
    14c4:	b508      	push	{r3, lr}
    14c6:	f7ff fe7d 	bl	11c4 <unwind_UCB_from_context>
    14ca:	6cc0      	ldr	r0, [r0, #76]	; 0x4c
    14cc:	79c3      	ldrb	r3, [r0, #7]
    14ce:	eb00 0083 	add.w	r0, r0, r3, lsl #2
    14d2:	3008      	adds	r0, #8
    14d4:	bd08      	pop	{r3, pc}
    14d6:	bf00      	nop

000014d8 <_Unwind_GetDataRelBase>:
    14d8:	b508      	push	{r3, lr}
    14da:	f000 f805 	bl	14e8 <abort>
    14de:	bf00      	nop

000014e0 <_Unwind_GetTextRelBase>:
    14e0:	b508      	push	{r3, lr}
    14e2:	f7ff fff9 	bl	14d8 <_Unwind_GetDataRelBase>
    14e6:	bf00      	nop

000014e8 <abort>:
    14e8:	b508      	push	{r3, lr}
    14ea:	2006      	movs	r0, #6
    14ec:	f000 f960 	bl	17b0 <raise>
    14f0:	2001      	movs	r0, #1
    14f2:	f001 fb79 	bl	2be8 <_exit>
    14f6:	bf00      	nop

000014f8 <exit>:
    14f8:	b508      	push	{r3, lr}
    14fa:	4b07      	ldr	r3, [pc, #28]	; (1518 <exit+0x20>)
    14fc:	4604      	mov	r4, r0
    14fe:	b113      	cbz	r3, 1506 <exit+0xe>
    1500:	2100      	movs	r1, #0
    1502:	f3af 8000 	nop.w
    1506:	4b05      	ldr	r3, [pc, #20]	; (151c <exit+0x24>)
    1508:	6818      	ldr	r0, [r3, #0]
    150a:	6a83      	ldr	r3, [r0, #40]	; 0x28
    150c:	b103      	cbz	r3, 1510 <exit+0x18>
    150e:	4798      	blx	r3
    1510:	4620      	mov	r0, r4
    1512:	f001 fb69 	bl	2be8 <_exit>
    1516:	bf00      	nop
    1518:	00000000 	andeq	r0, r0, r0
    151c:	00003274 	andeq	r3, r0, r4, ror r2

00001520 <memcpy>:
    1520:	4684      	mov	ip, r0
    1522:	ea41 0300 	orr.w	r3, r1, r0
    1526:	f013 0303 	ands.w	r3, r3, #3
    152a:	d149      	bne.n	15c0 <memcpy+0xa0>
    152c:	3a40      	subs	r2, #64	; 0x40
    152e:	d323      	bcc.n	1578 <memcpy+0x58>
    1530:	680b      	ldr	r3, [r1, #0]
    1532:	6003      	str	r3, [r0, #0]
    1534:	684b      	ldr	r3, [r1, #4]
    1536:	6043      	str	r3, [r0, #4]
    1538:	688b      	ldr	r3, [r1, #8]
    153a:	6083      	str	r3, [r0, #8]
    153c:	68cb      	ldr	r3, [r1, #12]
    153e:	60c3      	str	r3, [r0, #12]
    1540:	690b      	ldr	r3, [r1, #16]
    1542:	6103      	str	r3, [r0, #16]
    1544:	694b      	ldr	r3, [r1, #20]
    1546:	6143      	str	r3, [r0, #20]
    1548:	698b      	ldr	r3, [r1, #24]
    154a:	6183      	str	r3, [r0, #24]
    154c:	69cb      	ldr	r3, [r1, #28]
    154e:	61c3      	str	r3, [r0, #28]
    1550:	6a0b      	ldr	r3, [r1, #32]
    1552:	6203      	str	r3, [r0, #32]
    1554:	6a4b      	ldr	r3, [r1, #36]	; 0x24
    1556:	6243      	str	r3, [r0, #36]	; 0x24
    1558:	6a8b      	ldr	r3, [r1, #40]	; 0x28
    155a:	6283      	str	r3, [r0, #40]	; 0x28
    155c:	6acb      	ldr	r3, [r1, #44]	; 0x2c
    155e:	62c3      	str	r3, [r0, #44]	; 0x2c
    1560:	6b0b      	ldr	r3, [r1, #48]	; 0x30
    1562:	6303      	str	r3, [r0, #48]	; 0x30
    1564:	6b4b      	ldr	r3, [r1, #52]	; 0x34
    1566:	6343      	str	r3, [r0, #52]	; 0x34
    1568:	6b8b      	ldr	r3, [r1, #56]	; 0x38
    156a:	6383      	str	r3, [r0, #56]	; 0x38
    156c:	6bcb      	ldr	r3, [r1, #60]	; 0x3c
    156e:	63c3      	str	r3, [r0, #60]	; 0x3c
    1570:	3040      	adds	r0, #64	; 0x40
    1572:	3140      	adds	r1, #64	; 0x40
    1574:	3a40      	subs	r2, #64	; 0x40
    1576:	d2db      	bcs.n	1530 <memcpy+0x10>
    1578:	3230      	adds	r2, #48	; 0x30
    157a:	d30b      	bcc.n	1594 <memcpy+0x74>
    157c:	680b      	ldr	r3, [r1, #0]
    157e:	6003      	str	r3, [r0, #0]
    1580:	684b      	ldr	r3, [r1, #4]
    1582:	6043      	str	r3, [r0, #4]
    1584:	688b      	ldr	r3, [r1, #8]
    1586:	6083      	str	r3, [r0, #8]
    1588:	68cb      	ldr	r3, [r1, #12]
    158a:	60c3      	str	r3, [r0, #12]
    158c:	3010      	adds	r0, #16
    158e:	3110      	adds	r1, #16
    1590:	3a10      	subs	r2, #16
    1592:	d2f3      	bcs.n	157c <memcpy+0x5c>
    1594:	320c      	adds	r2, #12
    1596:	d305      	bcc.n	15a4 <memcpy+0x84>
    1598:	f851 3b04 	ldr.w	r3, [r1], #4
    159c:	f840 3b04 	str.w	r3, [r0], #4
    15a0:	3a04      	subs	r2, #4
    15a2:	d2f9      	bcs.n	1598 <memcpy+0x78>
    15a4:	3204      	adds	r2, #4
    15a6:	d008      	beq.n	15ba <memcpy+0x9a>
    15a8:	07d2      	lsls	r2, r2, #31
    15aa:	bf1c      	itt	ne
    15ac:	f811 3b01 	ldrbne.w	r3, [r1], #1
    15b0:	f800 3b01 	strbne.w	r3, [r0], #1
    15b4:	d301      	bcc.n	15ba <memcpy+0x9a>
    15b6:	880b      	ldrh	r3, [r1, #0]
    15b8:	8003      	strh	r3, [r0, #0]
    15ba:	4660      	mov	r0, ip
    15bc:	4770      	bx	lr
    15be:	bf00      	nop
    15c0:	2a08      	cmp	r2, #8
    15c2:	d313      	bcc.n	15ec <memcpy+0xcc>
    15c4:	078b      	lsls	r3, r1, #30
    15c6:	d0b1      	beq.n	152c <memcpy+0xc>
    15c8:	f010 0303 	ands.w	r3, r0, #3
    15cc:	d0ae      	beq.n	152c <memcpy+0xc>
    15ce:	f1c3 0304 	rsb	r3, r3, #4
    15d2:	1ad2      	subs	r2, r2, r3
    15d4:	07db      	lsls	r3, r3, #31
    15d6:	bf1c      	itt	ne
    15d8:	f811 3b01 	ldrbne.w	r3, [r1], #1
    15dc:	f800 3b01 	strbne.w	r3, [r0], #1
    15e0:	d3a4      	bcc.n	152c <memcpy+0xc>
    15e2:	f831 3b02 	ldrh.w	r3, [r1], #2
    15e6:	f820 3b02 	strh.w	r3, [r0], #2
    15ea:	e79f      	b.n	152c <memcpy+0xc>
    15ec:	3a04      	subs	r2, #4
    15ee:	d3d9      	bcc.n	15a4 <memcpy+0x84>
    15f0:	3a01      	subs	r2, #1
    15f2:	f811 3b01 	ldrb.w	r3, [r1], #1
    15f6:	f800 3b01 	strb.w	r3, [r0], #1
    15fa:	d2f9      	bcs.n	15f0 <memcpy+0xd0>
    15fc:	780b      	ldrb	r3, [r1, #0]
    15fe:	7003      	strb	r3, [r0, #0]
    1600:	784b      	ldrb	r3, [r1, #1]
    1602:	7043      	strb	r3, [r0, #1]
    1604:	788b      	ldrb	r3, [r1, #2]
    1606:	7083      	strb	r3, [r0, #2]
    1608:	4660      	mov	r0, ip
    160a:	4770      	bx	lr

0000160c <memset>:
    160c:	b4f0      	push	{r4, r5, r6, r7}
    160e:	0786      	lsls	r6, r0, #30
    1610:	d043      	beq.n	169a <memset+0x8e>
    1612:	1e54      	subs	r4, r2, #1
    1614:	2a00      	cmp	r2, #0
    1616:	d03e      	beq.n	1696 <memset+0x8a>
    1618:	b2ca      	uxtb	r2, r1
    161a:	4603      	mov	r3, r0
    161c:	e002      	b.n	1624 <memset+0x18>
    161e:	f114 34ff 	adds.w	r4, r4, #4294967295	; 0xffffffff
    1622:	d338      	bcc.n	1696 <memset+0x8a>
    1624:	f803 2b01 	strb.w	r2, [r3], #1
    1628:	079d      	lsls	r5, r3, #30
    162a:	d1f8      	bne.n	161e <memset+0x12>
    162c:	2c03      	cmp	r4, #3
    162e:	d92b      	bls.n	1688 <memset+0x7c>
    1630:	b2cd      	uxtb	r5, r1
    1632:	ea45 2505 	orr.w	r5, r5, r5, lsl #8
    1636:	2c0f      	cmp	r4, #15
    1638:	ea45 4505 	orr.w	r5, r5, r5, lsl #16
    163c:	d916      	bls.n	166c <memset+0x60>
    163e:	f1a4 0710 	sub.w	r7, r4, #16
    1642:	093f      	lsrs	r7, r7, #4
    1644:	f103 0620 	add.w	r6, r3, #32
    1648:	eb06 1607 	add.w	r6, r6, r7, lsl #4
    164c:	f103 0210 	add.w	r2, r3, #16
    1650:	e942 5504 	strd	r5, r5, [r2, #-16]
    1654:	e942 5502 	strd	r5, r5, [r2, #-8]
    1658:	3210      	adds	r2, #16
    165a:	42b2      	cmp	r2, r6
    165c:	d1f8      	bne.n	1650 <memset+0x44>
    165e:	f004 040f 	and.w	r4, r4, #15
    1662:	3701      	adds	r7, #1
    1664:	2c03      	cmp	r4, #3
    1666:	eb03 1307 	add.w	r3, r3, r7, lsl #4
    166a:	d90d      	bls.n	1688 <memset+0x7c>
    166c:	461e      	mov	r6, r3
    166e:	4622      	mov	r2, r4
    1670:	3a04      	subs	r2, #4
    1672:	2a03      	cmp	r2, #3
    1674:	f846 5b04 	str.w	r5, [r6], #4
    1678:	d8fa      	bhi.n	1670 <memset+0x64>
    167a:	1f22      	subs	r2, r4, #4
    167c:	f022 0203 	bic.w	r2, r2, #3
    1680:	3204      	adds	r2, #4
    1682:	4413      	add	r3, r2
    1684:	f004 0403 	and.w	r4, r4, #3
    1688:	b12c      	cbz	r4, 1696 <memset+0x8a>
    168a:	b2c9      	uxtb	r1, r1
    168c:	441c      	add	r4, r3
    168e:	f803 1b01 	strb.w	r1, [r3], #1
    1692:	429c      	cmp	r4, r3
    1694:	d1fb      	bne.n	168e <memset+0x82>
    1696:	bcf0      	pop	{r4, r5, r6, r7}
    1698:	4770      	bx	lr
    169a:	4614      	mov	r4, r2
    169c:	4603      	mov	r3, r0
    169e:	e7c5      	b.n	162c <memset+0x20>

000016a0 <_init_signal_r.part.0>:
    16a0:	b510      	push	{r4, lr}
    16a2:	2180      	movs	r1, #128	; 0x80
    16a4:	4604      	mov	r4, r0
    16a6:	f000 f8fb 	bl	18a0 <_malloc_r>
    16aa:	6460      	str	r0, [r4, #68]	; 0x44
    16ac:	b140      	cbz	r0, 16c0 <_init_signal_r.part.0+0x20>
    16ae:	2200      	movs	r2, #0
    16b0:	1f03      	subs	r3, r0, #4
    16b2:	307c      	adds	r0, #124	; 0x7c
    16b4:	f843 2f04 	str.w	r2, [r3, #4]!
    16b8:	4283      	cmp	r3, r0
    16ba:	d1fb      	bne.n	16b4 <_init_signal_r.part.0+0x14>
    16bc:	2000      	movs	r0, #0
    16be:	bd10      	pop	{r4, pc}
    16c0:	f04f 30ff 	mov.w	r0, #4294967295	; 0xffffffff
    16c4:	bd10      	pop	{r4, pc}
    16c6:	bf00      	nop

000016c8 <_init_signal_r>:
    16c8:	6c43      	ldr	r3, [r0, #68]	; 0x44
    16ca:	b10b      	cbz	r3, 16d0 <_init_signal_r+0x8>
    16cc:	2000      	movs	r0, #0
    16ce:	4770      	bx	lr
    16d0:	e7e6      	b.n	16a0 <_init_signal_r.part.0>
    16d2:	bf00      	nop

000016d4 <_signal_r>:
    16d4:	291f      	cmp	r1, #31
    16d6:	b570      	push	{r4, r5, r6, lr}
    16d8:	4605      	mov	r5, r0
    16da:	d808      	bhi.n	16ee <_signal_r+0x1a>
    16dc:	6c43      	ldr	r3, [r0, #68]	; 0x44
    16de:	4616      	mov	r6, r2
    16e0:	460c      	mov	r4, r1
    16e2:	b14b      	cbz	r3, 16f8 <_signal_r+0x24>
    16e4:	f853 0024 	ldr.w	r0, [r3, r4, lsl #2]
    16e8:	f843 6024 	str.w	r6, [r3, r4, lsl #2]
    16ec:	bd70      	pop	{r4, r5, r6, pc}
    16ee:	2216      	movs	r2, #22
    16f0:	f04f 30ff 	mov.w	r0, #4294967295	; 0xffffffff
    16f4:	602a      	str	r2, [r5, #0]
    16f6:	bd70      	pop	{r4, r5, r6, pc}
    16f8:	f7ff ffd2 	bl	16a0 <_init_signal_r.part.0>
    16fc:	b908      	cbnz	r0, 1702 <_signal_r+0x2e>
    16fe:	6c6b      	ldr	r3, [r5, #68]	; 0x44
    1700:	e7f0      	b.n	16e4 <_signal_r+0x10>
    1702:	f04f 30ff 	mov.w	r0, #4294967295	; 0xffffffff
    1706:	bd70      	pop	{r4, r5, r6, pc}

00001708 <_raise_r>:
    1708:	291f      	cmp	r1, #31
    170a:	b538      	push	{r3, r4, r5, lr}
    170c:	d823      	bhi.n	1756 <_raise_r+0x4e>
    170e:	6c43      	ldr	r3, [r0, #68]	; 0x44
    1710:	4605      	mov	r5, r0
    1712:	460c      	mov	r4, r1
    1714:	b173      	cbz	r3, 1734 <_raise_r+0x2c>
    1716:	f853 2021 	ldr.w	r2, [r3, r1, lsl #2]
    171a:	b15a      	cbz	r2, 1734 <_raise_r+0x2c>
    171c:	2a01      	cmp	r2, #1
    171e:	d013      	beq.n	1748 <_raise_r+0x40>
    1720:	1c51      	adds	r1, r2, #1
    1722:	d014      	beq.n	174e <_raise_r+0x46>
    1724:	2500      	movs	r5, #0
    1726:	4620      	mov	r0, r4
    1728:	f843 5024 	str.w	r5, [r3, r4, lsl #2]
    172c:	4790      	blx	r2
    172e:	462b      	mov	r3, r5
    1730:	4618      	mov	r0, r3
    1732:	bd38      	pop	{r3, r4, r5, pc}
    1734:	4628      	mov	r0, r5
    1736:	f000 f871 	bl	181c <_getpid_r>
    173a:	4622      	mov	r2, r4
    173c:	4601      	mov	r1, r0
    173e:	4628      	mov	r0, r5
    1740:	e8bd 4038 	ldmia.w	sp!, {r3, r4, r5, lr}
    1744:	f000 b856 	b.w	17f4 <_kill_r>
    1748:	2300      	movs	r3, #0
    174a:	4618      	mov	r0, r3
    174c:	bd38      	pop	{r3, r4, r5, pc}
    174e:	2216      	movs	r2, #22
    1750:	2301      	movs	r3, #1
    1752:	6002      	str	r2, [r0, #0]
    1754:	e7ec      	b.n	1730 <_raise_r+0x28>
    1756:	2216      	movs	r2, #22
    1758:	f04f 33ff 	mov.w	r3, #4294967295	; 0xffffffff
    175c:	6002      	str	r2, [r0, #0]
    175e:	e7e7      	b.n	1730 <_raise_r+0x28>

00001760 <__sigtramp_r>:
    1760:	291f      	cmp	r1, #31
    1762:	d821      	bhi.n	17a8 <__sigtramp_r+0x48>
    1764:	b538      	push	{r3, r4, r5, lr}
    1766:	6c43      	ldr	r3, [r0, #68]	; 0x44
    1768:	4605      	mov	r5, r0
    176a:	460c      	mov	r4, r1
    176c:	b183      	cbz	r3, 1790 <__sigtramp_r+0x30>
    176e:	f853 2024 	ldr.w	r2, [r3, r4, lsl #2]
    1772:	eb03 0384 	add.w	r3, r3, r4, lsl #2
    1776:	b14a      	cbz	r2, 178c <__sigtramp_r+0x2c>
    1778:	1c51      	adds	r1, r2, #1
    177a:	d00e      	beq.n	179a <__sigtramp_r+0x3a>
    177c:	2a01      	cmp	r2, #1
    177e:	d011      	beq.n	17a4 <__sigtramp_r+0x44>
    1780:	2500      	movs	r5, #0
    1782:	4620      	mov	r0, r4
    1784:	601d      	str	r5, [r3, #0]
    1786:	4790      	blx	r2
    1788:	4628      	mov	r0, r5
    178a:	bd38      	pop	{r3, r4, r5, pc}
    178c:	2001      	movs	r0, #1
    178e:	bd38      	pop	{r3, r4, r5, pc}
    1790:	f7ff ff86 	bl	16a0 <_init_signal_r.part.0>
    1794:	b918      	cbnz	r0, 179e <__sigtramp_r+0x3e>
    1796:	6c6b      	ldr	r3, [r5, #68]	; 0x44
    1798:	e7e9      	b.n	176e <__sigtramp_r+0xe>
    179a:	2002      	movs	r0, #2
    179c:	bd38      	pop	{r3, r4, r5, pc}
    179e:	f04f 30ff 	mov.w	r0, #4294967295	; 0xffffffff
    17a2:	bd38      	pop	{r3, r4, r5, pc}
    17a4:	2003      	movs	r0, #3
    17a6:	bd38      	pop	{r3, r4, r5, pc}
    17a8:	f04f 30ff 	mov.w	r0, #4294967295	; 0xffffffff
    17ac:	4770      	bx	lr
    17ae:	bf00      	nop

000017b0 <raise>:
    17b0:	4b02      	ldr	r3, [pc, #8]	; (17bc <raise+0xc>)
    17b2:	4601      	mov	r1, r0
    17b4:	6818      	ldr	r0, [r3, #0]
    17b6:	f7ff bfa7 	b.w	1708 <_raise_r>
    17ba:	bf00      	nop
    17bc:	20000000 	andcs	r0, r0, r0

000017c0 <signal>:
    17c0:	4b02      	ldr	r3, [pc, #8]	; (17cc <signal+0xc>)
    17c2:	460a      	mov	r2, r1
    17c4:	4601      	mov	r1, r0
    17c6:	6818      	ldr	r0, [r3, #0]
    17c8:	f7ff bf84 	b.w	16d4 <_signal_r>
    17cc:	20000000 	andcs	r0, r0, r0

000017d0 <_init_signal>:
    17d0:	4b03      	ldr	r3, [pc, #12]	; (17e0 <_init_signal+0x10>)
    17d2:	6818      	ldr	r0, [r3, #0]
    17d4:	6c43      	ldr	r3, [r0, #68]	; 0x44
    17d6:	b10b      	cbz	r3, 17dc <_init_signal+0xc>
    17d8:	2000      	movs	r0, #0
    17da:	4770      	bx	lr
    17dc:	e760      	b.n	16a0 <_init_signal_r.part.0>
    17de:	bf00      	nop
    17e0:	20000000 	andcs	r0, r0, r0

000017e4 <__sigtramp>:
    17e4:	4b02      	ldr	r3, [pc, #8]	; (17f0 <__sigtramp+0xc>)
    17e6:	4601      	mov	r1, r0
    17e8:	6818      	ldr	r0, [r3, #0]
    17ea:	f7ff bfb9 	b.w	1760 <__sigtramp_r>
    17ee:	bf00      	nop
    17f0:	20000000 	andcs	r0, r0, r0

000017f4 <_kill_r>:
    17f4:	b570      	push	{r4, r5, r6, lr}
    17f6:	460d      	mov	r5, r1
    17f8:	2300      	movs	r3, #0
    17fa:	4c07      	ldr	r4, [pc, #28]	; (1818 <_kill_r+0x24>)
    17fc:	4606      	mov	r6, r0
    17fe:	4611      	mov	r1, r2
    1800:	4628      	mov	r0, r5
    1802:	6023      	str	r3, [r4, #0]
    1804:	f001 fa12 	bl	2c2c <_kill>
    1808:	1c43      	adds	r3, r0, #1
    180a:	d000      	beq.n	180e <_kill_r+0x1a>
    180c:	bd70      	pop	{r4, r5, r6, pc}
    180e:	6823      	ldr	r3, [r4, #0]
    1810:	2b00      	cmp	r3, #0
    1812:	d0fb      	beq.n	180c <_kill_r+0x18>
    1814:	6033      	str	r3, [r6, #0]
    1816:	bd70      	pop	{r4, r5, r6, pc}
    1818:	2000012c 	andcs	r0, r0, ip, lsr #2

0000181c <_getpid_r>:
    181c:	f000 bf2c 	b.w	2678 <_getpid>

00001820 <_siprintf_r>:
    1820:	b40c      	push	{r2, r3}
    1822:	b570      	push	{r4, r5, r6, lr}
    1824:	f06f 4500 	mvn.w	r5, #2147483648	; 0x80000000
    1828:	b09c      	sub	sp, #112	; 0x70
    182a:	ac20      	add	r4, sp, #128	; 0x80
    182c:	f854 2b04 	ldr.w	r2, [r4], #4
    1830:	4e09      	ldr	r6, [pc, #36]	; (1858 <_siprintf_r+0x38>)
    1832:	9102      	str	r1, [sp, #8]
    1834:	9106      	str	r1, [sp, #24]
    1836:	4623      	mov	r3, r4
    1838:	a902      	add	r1, sp, #8
    183a:	9401      	str	r4, [sp, #4]
    183c:	9507      	str	r5, [sp, #28]
    183e:	e9cd 5604 	strd	r5, r6, [sp, #16]
    1842:	f000 f96d 	bl	1b20 <_svfiprintf_r>
    1846:	2200      	movs	r2, #0
    1848:	9b02      	ldr	r3, [sp, #8]
    184a:	701a      	strb	r2, [r3, #0]
    184c:	b01c      	add	sp, #112	; 0x70
    184e:	e8bd 4070 	ldmia.w	sp!, {r4, r5, r6, lr}
    1852:	b002      	add	sp, #8
    1854:	4770      	bx	lr
    1856:	bf00      	nop
    1858:	ffff0208 			; <UNDEFINED> instruction: 0xffff0208

0000185c <siprintf>:
    185c:	b40e      	push	{r1, r2, r3}
    185e:	4603      	mov	r3, r0
    1860:	b530      	push	{r4, r5, lr}
    1862:	f06f 4400 	mvn.w	r4, #2147483648	; 0x80000000
    1866:	b09c      	sub	sp, #112	; 0x70
    1868:	a91f      	add	r1, sp, #124	; 0x7c
    186a:	f851 2b04 	ldr.w	r2, [r1], #4
    186e:	480a      	ldr	r0, [pc, #40]	; (1898 <siprintf+0x3c>)
    1870:	4d0a      	ldr	r5, [pc, #40]	; (189c <siprintf+0x40>)
    1872:	9302      	str	r3, [sp, #8]
    1874:	9306      	str	r3, [sp, #24]
    1876:	9101      	str	r1, [sp, #4]
    1878:	460b      	mov	r3, r1
    187a:	6800      	ldr	r0, [r0, #0]
    187c:	a902      	add	r1, sp, #8
    187e:	9407      	str	r4, [sp, #28]
    1880:	e9cd 4504 	strd	r4, r5, [sp, #16]
    1884:	f000 f94c 	bl	1b20 <_svfiprintf_r>
    1888:	2200      	movs	r2, #0
    188a:	9b02      	ldr	r3, [sp, #8]
    188c:	701a      	strb	r2, [r3, #0]
    188e:	b01c      	add	sp, #112	; 0x70
    1890:	e8bd 4030 	ldmia.w	sp!, {r4, r5, lr}
    1894:	b003      	add	sp, #12
    1896:	4770      	bx	lr
    1898:	20000000 	andcs	r0, r0, r0
    189c:	ffff0208 			; <UNDEFINED> instruction: 0xffff0208

000018a0 <_malloc_r>:
    18a0:	b5f8      	push	{r3, r4, r5, r6, r7, lr}
    18a2:	1ccd      	adds	r5, r1, #3
    18a4:	f025 0503 	bic.w	r5, r5, #3
    18a8:	3508      	adds	r5, #8
    18aa:	2d0c      	cmp	r5, #12
    18ac:	bf38      	it	cc
    18ae:	250c      	movcc	r5, #12
    18b0:	2d00      	cmp	r5, #0
    18b2:	4606      	mov	r6, r0
    18b4:	db3a      	blt.n	192c <_malloc_r+0x8c>
    18b6:	42a9      	cmp	r1, r5
    18b8:	d838      	bhi.n	192c <_malloc_r+0x8c>
    18ba:	4f2a      	ldr	r7, [pc, #168]	; (1964 <_malloc_r+0xc4>)
    18bc:	f000 fcfe 	bl	22bc <__malloc_lock>
    18c0:	683a      	ldr	r2, [r7, #0]
    18c2:	b152      	cbz	r2, 18da <_malloc_r+0x3a>
    18c4:	6813      	ldr	r3, [r2, #0]
    18c6:	1b5b      	subs	r3, r3, r5
    18c8:	d404      	bmi.n	18d4 <_malloc_r+0x34>
    18ca:	e033      	b.n	1934 <_malloc_r+0x94>
    18cc:	6823      	ldr	r3, [r4, #0]
    18ce:	1b5b      	subs	r3, r3, r5
    18d0:	d525      	bpl.n	191e <_malloc_r+0x7e>
    18d2:	4622      	mov	r2, r4
    18d4:	6854      	ldr	r4, [r2, #4]
    18d6:	2c00      	cmp	r4, #0
    18d8:	d1f8      	bne.n	18cc <_malloc_r+0x2c>
    18da:	6879      	ldr	r1, [r7, #4]
    18dc:	2900      	cmp	r1, #0
    18de:	d03b      	beq.n	1958 <_malloc_r+0xb8>
    18e0:	4629      	mov	r1, r5
    18e2:	4630      	mov	r0, r6
    18e4:	f000 fc30 	bl	2148 <_sbrk_r>
    18e8:	1c43      	adds	r3, r0, #1
    18ea:	d02a      	beq.n	1942 <_malloc_r+0xa2>
    18ec:	1cc4      	adds	r4, r0, #3
    18ee:	f024 0403 	bic.w	r4, r4, #3
    18f2:	42a0      	cmp	r0, r4
    18f4:	d005      	beq.n	1902 <_malloc_r+0x62>
    18f6:	1a21      	subs	r1, r4, r0
    18f8:	4630      	mov	r0, r6
    18fa:	f000 fc25 	bl	2148 <_sbrk_r>
    18fe:	3001      	adds	r0, #1
    1900:	d01f      	beq.n	1942 <_malloc_r+0xa2>
    1902:	6025      	str	r5, [r4, #0]
    1904:	4630      	mov	r0, r6
    1906:	f000 fcdb 	bl	22c0 <__malloc_unlock>
    190a:	f104 000b 	add.w	r0, r4, #11
    190e:	f020 0007 	bic.w	r0, r0, #7
    1912:	1d23      	adds	r3, r4, #4
    1914:	1ac3      	subs	r3, r0, r3
    1916:	d001      	beq.n	191c <_malloc_r+0x7c>
    1918:	425a      	negs	r2, r3
    191a:	50e2      	str	r2, [r4, r3]
    191c:	bdf8      	pop	{r3, r4, r5, r6, r7, pc}
    191e:	2b0b      	cmp	r3, #11
    1920:	d80b      	bhi.n	193a <_malloc_r+0x9a>
    1922:	42a2      	cmp	r2, r4
    1924:	d015      	beq.n	1952 <_malloc_r+0xb2>
    1926:	6863      	ldr	r3, [r4, #4]
    1928:	6053      	str	r3, [r2, #4]
    192a:	e7eb      	b.n	1904 <_malloc_r+0x64>
    192c:	230c      	movs	r3, #12
    192e:	2000      	movs	r0, #0
    1930:	6033      	str	r3, [r6, #0]
    1932:	bdf8      	pop	{r3, r4, r5, r6, r7, pc}
    1934:	2b0b      	cmp	r3, #11
    1936:	d90b      	bls.n	1950 <_malloc_r+0xb0>
    1938:	4614      	mov	r4, r2
    193a:	6023      	str	r3, [r4, #0]
    193c:	441c      	add	r4, r3
    193e:	6025      	str	r5, [r4, #0]
    1940:	e7e0      	b.n	1904 <_malloc_r+0x64>
    1942:	230c      	movs	r3, #12
    1944:	4630      	mov	r0, r6
    1946:	6033      	str	r3, [r6, #0]
    1948:	f000 fcba 	bl	22c0 <__malloc_unlock>
    194c:	2000      	movs	r0, #0
    194e:	bdf8      	pop	{r3, r4, r5, r6, r7, pc}
    1950:	6854      	ldr	r4, [r2, #4]
    1952:	603c      	str	r4, [r7, #0]
    1954:	4614      	mov	r4, r2
    1956:	e7d5      	b.n	1904 <_malloc_r+0x64>
    1958:	4630      	mov	r0, r6
    195a:	f000 fbf5 	bl	2148 <_sbrk_r>
    195e:	6078      	str	r0, [r7, #4]
    1960:	e7be      	b.n	18e0 <_malloc_r+0x40>
    1962:	bf00      	nop
    1964:	20000074 	andcs	r0, r0, r4, ror r0

00001968 <__ssputs_r>:
    1968:	e92d 47f0 	stmdb	sp!, {r4, r5, r6, r7, r8, r9, sl, lr}
    196c:	688e      	ldr	r6, [r1, #8]
    196e:	4680      	mov	r8, r0
    1970:	429e      	cmp	r6, r3
    1972:	460c      	mov	r4, r1
    1974:	461d      	mov	r5, r3
    1976:	4617      	mov	r7, r2
    1978:	6808      	ldr	r0, [r1, #0]
    197a:	d828      	bhi.n	19ce <__ssputs_r+0x66>
    197c:	f8b1 c00c 	ldrh.w	ip, [r1, #12]
    1980:	f41c 6f90 	tst.w	ip, #1152	; 0x480
    1984:	d031      	beq.n	19ea <__ssputs_r+0x82>
    1986:	e9d1 1604 	ldrd	r1, r6, [r1, #16]
    198a:	eb06 0646 	add.w	r6, r6, r6, lsl #1
    198e:	eb06 76d6 	add.w	r6, r6, r6, lsr #31
    1992:	eba0 0901 	sub.w	r9, r0, r1
    1996:	3301      	adds	r3, #1
    1998:	1076      	asrs	r6, r6, #1
    199a:	444b      	add	r3, r9
    199c:	42b3      	cmp	r3, r6
    199e:	4632      	mov	r2, r6
    19a0:	bf84      	itt	hi
    19a2:	461e      	movhi	r6, r3
    19a4:	4632      	movhi	r2, r6
    19a6:	f41c 6f80 	tst.w	ip, #1024	; 0x400
    19aa:	d020      	beq.n	19ee <__ssputs_r+0x86>
    19ac:	4611      	mov	r1, r2
    19ae:	4640      	mov	r0, r8
    19b0:	f7ff ff76 	bl	18a0 <_malloc_r>
    19b4:	4682      	mov	sl, r0
    19b6:	b370      	cbz	r0, 1a16 <__ssputs_r+0xae>
    19b8:	464a      	mov	r2, r9
    19ba:	6921      	ldr	r1, [r4, #16]
    19bc:	f7ff fdb0 	bl	1520 <memcpy>
    19c0:	89a3      	ldrh	r3, [r4, #12]
    19c2:	f423 6390 	bic.w	r3, r3, #1152	; 0x480
    19c6:	f043 0380 	orr.w	r3, r3, #128	; 0x80
    19ca:	81a3      	strh	r3, [r4, #12]
    19cc:	e014      	b.n	19f8 <__ssputs_r+0x90>
    19ce:	461e      	mov	r6, r3
    19d0:	462a      	mov	r2, r5
    19d2:	4639      	mov	r1, r7
    19d4:	f000 fc10 	bl	21f8 <memmove>
    19d8:	2000      	movs	r0, #0
    19da:	68a2      	ldr	r2, [r4, #8]
    19dc:	6823      	ldr	r3, [r4, #0]
    19de:	1b96      	subs	r6, r2, r6
    19e0:	442b      	add	r3, r5
    19e2:	60a6      	str	r6, [r4, #8]
    19e4:	6023      	str	r3, [r4, #0]
    19e6:	e8bd 87f0 	ldmia.w	sp!, {r4, r5, r6, r7, r8, r9, sl, pc}
    19ea:	4635      	mov	r5, r6
    19ec:	e7f0      	b.n	19d0 <__ssputs_r+0x68>
    19ee:	4640      	mov	r0, r8
    19f0:	f000 fcbc 	bl	236c <_realloc_r>
    19f4:	4682      	mov	sl, r0
    19f6:	b150      	cbz	r0, 1a0e <__ssputs_r+0xa6>
    19f8:	eba6 0309 	sub.w	r3, r6, r9
    19fc:	eb0a 0009 	add.w	r0, sl, r9
    1a00:	6166      	str	r6, [r4, #20]
    1a02:	f8c4 a010 	str.w	sl, [r4, #16]
    1a06:	6020      	str	r0, [r4, #0]
    1a08:	60a3      	str	r3, [r4, #8]
    1a0a:	462e      	mov	r6, r5
    1a0c:	e7e0      	b.n	19d0 <__ssputs_r+0x68>
    1a0e:	6921      	ldr	r1, [r4, #16]
    1a10:	4640      	mov	r0, r8
    1a12:	f000 fc57 	bl	22c4 <_free_r>
    1a16:	230c      	movs	r3, #12
    1a18:	f8c8 3000 	str.w	r3, [r8]
    1a1c:	89a3      	ldrh	r3, [r4, #12]
    1a1e:	f04f 30ff 	mov.w	r0, #4294967295	; 0xffffffff
    1a22:	f043 0340 	orr.w	r3, r3, #64	; 0x40
    1a26:	81a3      	strh	r3, [r4, #12]
    1a28:	e7dd      	b.n	19e6 <__ssputs_r+0x7e>
    1a2a:	bf00      	nop

00001a2c <__ssprint_r>:
    1a2c:	e92d 4ff0 	stmdb	sp!, {r4, r5, r6, r7, r8, r9, sl, fp, lr}
    1a30:	6893      	ldr	r3, [r2, #8]
    1a32:	b083      	sub	sp, #12
    1a34:	4690      	mov	r8, r2
    1a36:	2b00      	cmp	r3, #0
    1a38:	d06c      	beq.n	1b14 <__ssprint_r+0xe8>
    1a3a:	6817      	ldr	r7, [r2, #0]
    1a3c:	4682      	mov	sl, r0
    1a3e:	460c      	mov	r4, r1
    1a40:	6808      	ldr	r0, [r1, #0]
    1a42:	3708      	adds	r7, #8
    1a44:	688d      	ldr	r5, [r1, #8]
    1a46:	e042      	b.n	1ace <__ssprint_r+0xa2>
    1a48:	89a3      	ldrh	r3, [r4, #12]
    1a4a:	f413 6f90 	tst.w	r3, #1152	; 0x480
    1a4e:	d02d      	beq.n	1aac <__ssprint_r+0x80>
    1a50:	e9d4 1504 	ldrd	r1, r5, [r4, #16]
    1a54:	eb05 0545 	add.w	r5, r5, r5, lsl #1
    1a58:	eba0 0b01 	sub.w	fp, r0, r1
    1a5c:	eb05 75d5 	add.w	r5, r5, r5, lsr #31
    1a60:	1c70      	adds	r0, r6, #1
    1a62:	106d      	asrs	r5, r5, #1
    1a64:	4458      	add	r0, fp
    1a66:	42a8      	cmp	r0, r5
    1a68:	462a      	mov	r2, r5
    1a6a:	bf84      	itt	hi
    1a6c:	4605      	movhi	r5, r0
    1a6e:	462a      	movhi	r2, r5
    1a70:	055b      	lsls	r3, r3, #21
    1a72:	d536      	bpl.n	1ae2 <__ssprint_r+0xb6>
    1a74:	4611      	mov	r1, r2
    1a76:	4650      	mov	r0, sl
    1a78:	f7ff ff12 	bl	18a0 <_malloc_r>
    1a7c:	2800      	cmp	r0, #0
    1a7e:	d03a      	beq.n	1af6 <__ssprint_r+0xca>
    1a80:	465a      	mov	r2, fp
    1a82:	6921      	ldr	r1, [r4, #16]
    1a84:	9001      	str	r0, [sp, #4]
    1a86:	f7ff fd4b 	bl	1520 <memcpy>
    1a8a:	89a2      	ldrh	r2, [r4, #12]
    1a8c:	9b01      	ldr	r3, [sp, #4]
    1a8e:	f422 6290 	bic.w	r2, r2, #1152	; 0x480
    1a92:	f042 0280 	orr.w	r2, r2, #128	; 0x80
    1a96:	81a2      	strh	r2, [r4, #12]
    1a98:	eba5 020b 	sub.w	r2, r5, fp
    1a9c:	eb03 000b 	add.w	r0, r3, fp
    1aa0:	6165      	str	r5, [r4, #20]
    1aa2:	46b3      	mov	fp, r6
    1aa4:	4635      	mov	r5, r6
    1aa6:	6123      	str	r3, [r4, #16]
    1aa8:	6020      	str	r0, [r4, #0]
    1aaa:	60a2      	str	r2, [r4, #8]
    1aac:	465a      	mov	r2, fp
    1aae:	4649      	mov	r1, r9
    1ab0:	f000 fba2 	bl	21f8 <memmove>
    1ab4:	f8d8 3008 	ldr.w	r3, [r8, #8]
    1ab8:	68a2      	ldr	r2, [r4, #8]
    1aba:	6820      	ldr	r0, [r4, #0]
    1abc:	1b55      	subs	r5, r2, r5
    1abe:	4458      	add	r0, fp
    1ac0:	1b9e      	subs	r6, r3, r6
    1ac2:	60a5      	str	r5, [r4, #8]
    1ac4:	6020      	str	r0, [r4, #0]
    1ac6:	f8c8 6008 	str.w	r6, [r8, #8]
    1aca:	b31e      	cbz	r6, 1b14 <__ssprint_r+0xe8>
    1acc:	3708      	adds	r7, #8
    1ace:	e957 9602 	ldrd	r9, r6, [r7, #-8]
    1ad2:	46ab      	mov	fp, r5
    1ad4:	2e00      	cmp	r6, #0
    1ad6:	d0f9      	beq.n	1acc <__ssprint_r+0xa0>
    1ad8:	42ae      	cmp	r6, r5
    1ada:	d2b5      	bcs.n	1a48 <__ssprint_r+0x1c>
    1adc:	4635      	mov	r5, r6
    1ade:	46b3      	mov	fp, r6
    1ae0:	e7e4      	b.n	1aac <__ssprint_r+0x80>
    1ae2:	4650      	mov	r0, sl
    1ae4:	f000 fc42 	bl	236c <_realloc_r>
    1ae8:	4603      	mov	r3, r0
    1aea:	2800      	cmp	r0, #0
    1aec:	d1d4      	bne.n	1a98 <__ssprint_r+0x6c>
    1aee:	6921      	ldr	r1, [r4, #16]
    1af0:	4650      	mov	r0, sl
    1af2:	f000 fbe7 	bl	22c4 <_free_r>
    1af6:	230c      	movs	r3, #12
    1af8:	2200      	movs	r2, #0
    1afa:	f04f 30ff 	mov.w	r0, #4294967295	; 0xffffffff
    1afe:	f8ca 3000 	str.w	r3, [sl]
    1b02:	89a3      	ldrh	r3, [r4, #12]
    1b04:	f043 0340 	orr.w	r3, r3, #64	; 0x40
    1b08:	81a3      	strh	r3, [r4, #12]
    1b0a:	e9c8 2201 	strd	r2, r2, [r8, #4]
    1b0e:	b003      	add	sp, #12
    1b10:	e8bd 8ff0 	ldmia.w	sp!, {r4, r5, r6, r7, r8, r9, sl, fp, pc}
    1b14:	2000      	movs	r0, #0
    1b16:	f8c8 0004 	str.w	r0, [r8, #4]
    1b1a:	b003      	add	sp, #12
    1b1c:	e8bd 8ff0 	ldmia.w	sp!, {r4, r5, r6, r7, r8, r9, sl, fp, pc}

00001b20 <_svfiprintf_r>:
    1b20:	e92d 4ff0 	stmdb	sp!, {r4, r5, r6, r7, r8, r9, sl, fp, lr}
    1b24:	4688      	mov	r8, r1
    1b26:	8989      	ldrh	r1, [r1, #12]
    1b28:	b09f      	sub	sp, #124	; 0x7c
    1b2a:	060d      	lsls	r5, r1, #24
    1b2c:	4614      	mov	r4, r2
    1b2e:	9002      	str	r0, [sp, #8]
    1b30:	d504      	bpl.n	1b3c <_svfiprintf_r+0x1c>
    1b32:	f8d8 2010 	ldr.w	r2, [r8, #16]
    1b36:	2a00      	cmp	r2, #0
    1b38:	f000 8117 	beq.w	1d6a <_svfiprintf_r+0x24a>
    1b3c:	2000      	movs	r0, #0
    1b3e:	2120      	movs	r1, #32
    1b40:	2230      	movs	r2, #48	; 0x30
    1b42:	9305      	str	r3, [sp, #20]
    1b44:	7823      	ldrb	r3, [r4, #0]
    1b46:	2601      	movs	r6, #1
    1b48:	900b      	str	r0, [sp, #44]	; 0x2c
    1b4a:	f88d 1031 	strb.w	r1, [sp, #49]	; 0x31
    1b4e:	4d91      	ldr	r5, [pc, #580]	; (1d94 <_svfiprintf_r+0x274>)
    1b50:	f88d 2032 	strb.w	r2, [sp, #50]	; 0x32
    1b54:	2b00      	cmp	r3, #0
    1b56:	f000 8096 	beq.w	1c86 <_svfiprintf_r+0x166>
    1b5a:	2b25      	cmp	r3, #37	; 0x25
    1b5c:	46a2      	mov	sl, r4
    1b5e:	d103      	bne.n	1b68 <_svfiprintf_r+0x48>
    1b60:	e019      	b.n	1b96 <_svfiprintf_r+0x76>
    1b62:	2b25      	cmp	r3, #37	; 0x25
    1b64:	f000 80c2 	beq.w	1cec <_svfiprintf_r+0x1cc>
    1b68:	f81a 3f01 	ldrb.w	r3, [sl, #1]!
    1b6c:	2b00      	cmp	r3, #0
    1b6e:	d1f8      	bne.n	1b62 <_svfiprintf_r+0x42>
    1b70:	ebba 0b04 	subs.w	fp, sl, r4
    1b74:	f000 8087 	beq.w	1c86 <_svfiprintf_r+0x166>
    1b78:	4622      	mov	r2, r4
    1b7a:	465b      	mov	r3, fp
    1b7c:	4641      	mov	r1, r8
    1b7e:	9802      	ldr	r0, [sp, #8]
    1b80:	f7ff fef2 	bl	1968 <__ssputs_r>
    1b84:	3001      	adds	r0, #1
    1b86:	d07e      	beq.n	1c86 <_svfiprintf_r+0x166>
    1b88:	9b0b      	ldr	r3, [sp, #44]	; 0x2c
    1b8a:	f89a 2000 	ldrb.w	r2, [sl]
    1b8e:	445b      	add	r3, fp
    1b90:	930b      	str	r3, [sp, #44]	; 0x2c
    1b92:	2a00      	cmp	r2, #0
    1b94:	d077      	beq.n	1c86 <_svfiprintf_r+0x166>
    1b96:	2300      	movs	r3, #0
    1b98:	f04f 32ff 	mov.w	r2, #4294967295	; 0xffffffff
    1b9c:	f10a 0a01 	add.w	sl, sl, #1
    1ba0:	9306      	str	r3, [sp, #24]
    1ba2:	e9cd 3308 	strd	r3, r3, [sp, #32]
    1ba6:	f88d 305b 	strb.w	r3, [sp, #91]	; 0x5b
    1baa:	931c      	str	r3, [sp, #112]	; 0x70
    1bac:	9207      	str	r2, [sp, #28]
    1bae:	e006      	b.n	1bbe <_svfiprintf_r+0x9e>
    1bb0:	46ca      	mov	sl, r9
    1bb2:	9b06      	ldr	r3, [sp, #24]
    1bb4:	1b40      	subs	r0, r0, r5
    1bb6:	fa06 f000 	lsl.w	r0, r6, r0
    1bba:	4318      	orrs	r0, r3
    1bbc:	9006      	str	r0, [sp, #24]
    1bbe:	46d1      	mov	r9, sl
    1bc0:	2205      	movs	r2, #5
    1bc2:	f819 1b01 	ldrb.w	r1, [r9], #1
    1bc6:	4628      	mov	r0, r5
    1bc8:	f000 fad0 	bl	216c <memchr>
    1bcc:	46cb      	mov	fp, r9
    1bce:	2800      	cmp	r0, #0
    1bd0:	d1ee      	bne.n	1bb0 <_svfiprintf_r+0x90>
    1bd2:	9b06      	ldr	r3, [sp, #24]
    1bd4:	06d8      	lsls	r0, r3, #27
    1bd6:	bf44      	itt	mi
    1bd8:	2220      	movmi	r2, #32
    1bda:	f88d 205b 	strbmi.w	r2, [sp, #91]	; 0x5b
    1bde:	0719      	lsls	r1, r3, #28
    1be0:	bf48      	it	mi
    1be2:	222b      	movmi	r2, #43	; 0x2b
    1be4:	f89a 1000 	ldrb.w	r1, [sl]
    1be8:	bf48      	it	mi
    1bea:	f88d 205b 	strbmi.w	r2, [sp, #91]	; 0x5b
    1bee:	292a      	cmp	r1, #42	; 0x2a
    1bf0:	d053      	beq.n	1c9a <_svfiprintf_r+0x17a>
    1bf2:	f1a1 0330 	sub.w	r3, r1, #48	; 0x30
    1bf6:	2b09      	cmp	r3, #9
    1bf8:	f200 80ac 	bhi.w	1d54 <_svfiprintf_r+0x234>
    1bfc:	9a09      	ldr	r2, [sp, #36]	; 0x24
    1bfe:	e002      	b.n	1c06 <_svfiprintf_r+0xe6>
    1c00:	46ca      	mov	sl, r9
    1c02:	f109 0901 	add.w	r9, r9, #1
    1c06:	f899 1000 	ldrb.w	r1, [r9]
    1c0a:	eb02 0282 	add.w	r2, r2, r2, lsl #2
    1c0e:	eb03 0242 	add.w	r2, r3, r2, lsl #1
    1c12:	f1a1 0330 	sub.w	r3, r1, #48	; 0x30
    1c16:	2b09      	cmp	r3, #9
    1c18:	46cb      	mov	fp, r9
    1c1a:	d9f1      	bls.n	1c00 <_svfiprintf_r+0xe0>
    1c1c:	f10a 0902 	add.w	r9, sl, #2
    1c20:	9209      	str	r2, [sp, #36]	; 0x24
    1c22:	292e      	cmp	r1, #46	; 0x2e
    1c24:	d046      	beq.n	1cb4 <_svfiprintf_r+0x194>
    1c26:	4c5c      	ldr	r4, [pc, #368]	; (1d98 <_svfiprintf_r+0x278>)
    1c28:	2203      	movs	r2, #3
    1c2a:	4620      	mov	r0, r4
    1c2c:	f000 fa9e 	bl	216c <memchr>
    1c30:	2800      	cmp	r0, #0
    1c32:	d058      	beq.n	1ce6 <_svfiprintf_r+0x1c6>
    1c34:	2140      	movs	r1, #64	; 0x40
    1c36:	1b00      	subs	r0, r0, r4
    1c38:	9a06      	ldr	r2, [sp, #24]
    1c3a:	fa01 f000 	lsl.w	r0, r1, r0
    1c3e:	4302      	orrs	r2, r0
    1c40:	9206      	str	r2, [sp, #24]
    1c42:	f109 0401 	add.w	r4, r9, #1
    1c46:	f899 3000 	ldrb.w	r3, [r9]
    1c4a:	2206      	movs	r2, #6
    1c4c:	4619      	mov	r1, r3
    1c4e:	4853      	ldr	r0, [pc, #332]	; (1d9c <_svfiprintf_r+0x27c>)
    1c50:	f88d 3030 	strb.w	r3, [sp, #48]	; 0x30
    1c54:	f000 fa8a 	bl	216c <memchr>
    1c58:	2800      	cmp	r0, #0
    1c5a:	d059      	beq.n	1d10 <_svfiprintf_r+0x1f0>
    1c5c:	4b50      	ldr	r3, [pc, #320]	; (1da0 <_svfiprintf_r+0x280>)
    1c5e:	2b00      	cmp	r3, #0
    1c60:	d049      	beq.n	1cf6 <_svfiprintf_r+0x1d6>
    1c62:	ab05      	add	r3, sp, #20
    1c64:	9300      	str	r3, [sp, #0]
    1c66:	4642      	mov	r2, r8
    1c68:	4b4e      	ldr	r3, [pc, #312]	; (1da4 <_svfiprintf_r+0x284>)
    1c6a:	a906      	add	r1, sp, #24
    1c6c:	9802      	ldr	r0, [sp, #8]
    1c6e:	f3af 8000 	nop.w
    1c72:	4607      	mov	r7, r0
    1c74:	1c7a      	adds	r2, r7, #1
    1c76:	d006      	beq.n	1c86 <_svfiprintf_r+0x166>
    1c78:	9b0b      	ldr	r3, [sp, #44]	; 0x2c
    1c7a:	443b      	add	r3, r7
    1c7c:	930b      	str	r3, [sp, #44]	; 0x2c
    1c7e:	7823      	ldrb	r3, [r4, #0]
    1c80:	2b00      	cmp	r3, #0
    1c82:	f47f af6a 	bne.w	1b5a <_svfiprintf_r+0x3a>
    1c86:	f8b8 300c 	ldrh.w	r3, [r8, #12]
    1c8a:	065b      	lsls	r3, r3, #25
    1c8c:	bf4c      	ite	mi
    1c8e:	f04f 30ff 	movmi.w	r0, #4294967295	; 0xffffffff
    1c92:	980b      	ldrpl	r0, [sp, #44]	; 0x2c
    1c94:	b01f      	add	sp, #124	; 0x7c
    1c96:	e8bd 8ff0 	ldmia.w	sp!, {r4, r5, r6, r7, r8, r9, sl, fp, pc}
    1c9a:	9a05      	ldr	r2, [sp, #20]
    1c9c:	6811      	ldr	r1, [r2, #0]
    1c9e:	3204      	adds	r2, #4
    1ca0:	2900      	cmp	r1, #0
    1ca2:	9205      	str	r2, [sp, #20]
    1ca4:	db2e      	blt.n	1d04 <_svfiprintf_r+0x1e4>
    1ca6:	9109      	str	r1, [sp, #36]	; 0x24
    1ca8:	f89a 1001 	ldrb.w	r1, [sl, #1]
    1cac:	f10a 0902 	add.w	r9, sl, #2
    1cb0:	292e      	cmp	r1, #46	; 0x2e
    1cb2:	d1b8      	bne.n	1c26 <_svfiprintf_r+0x106>
    1cb4:	f89b 1001 	ldrb.w	r1, [fp, #1]
    1cb8:	292a      	cmp	r1, #42	; 0x2a
    1cba:	d133      	bne.n	1d24 <_svfiprintf_r+0x204>
    1cbc:	9b05      	ldr	r3, [sp, #20]
    1cbe:	f10b 0002 	add.w	r0, fp, #2
    1cc2:	681a      	ldr	r2, [r3, #0]
    1cc4:	3304      	adds	r3, #4
    1cc6:	2a00      	cmp	r2, #0
    1cc8:	9207      	str	r2, [sp, #28]
    1cca:	9305      	str	r3, [sp, #20]
    1ccc:	f89b 1002 	ldrb.w	r1, [fp, #2]
    1cd0:	f10b 0903 	add.w	r9, fp, #3
    1cd4:	db40      	blt.n	1d58 <_svfiprintf_r+0x238>
    1cd6:	4c30      	ldr	r4, [pc, #192]	; (1d98 <_svfiprintf_r+0x278>)
    1cd8:	4683      	mov	fp, r0
    1cda:	2203      	movs	r2, #3
    1cdc:	4620      	mov	r0, r4
    1cde:	f000 fa45 	bl	216c <memchr>
    1ce2:	2800      	cmp	r0, #0
    1ce4:	d1a6      	bne.n	1c34 <_svfiprintf_r+0x114>
    1ce6:	464c      	mov	r4, r9
    1ce8:	46d9      	mov	r9, fp
    1cea:	e7ac      	b.n	1c46 <_svfiprintf_r+0x126>
    1cec:	ebba 0b04 	subs.w	fp, sl, r4
    1cf0:	f43f af51 	beq.w	1b96 <_svfiprintf_r+0x76>
    1cf4:	e740      	b.n	1b78 <_svfiprintf_r+0x58>
    1cf6:	9b05      	ldr	r3, [sp, #20]
    1cf8:	3307      	adds	r3, #7
    1cfa:	f023 0307 	bic.w	r3, r3, #7
    1cfe:	3308      	adds	r3, #8
    1d00:	9305      	str	r3, [sp, #20]
    1d02:	e7b9      	b.n	1c78 <_svfiprintf_r+0x158>
    1d04:	4249      	negs	r1, r1
    1d06:	f043 0302 	orr.w	r3, r3, #2
    1d0a:	9109      	str	r1, [sp, #36]	; 0x24
    1d0c:	9306      	str	r3, [sp, #24]
    1d0e:	e7cb      	b.n	1ca8 <_svfiprintf_r+0x188>
    1d10:	ab05      	add	r3, sp, #20
    1d12:	9300      	str	r3, [sp, #0]
    1d14:	4642      	mov	r2, r8
    1d16:	4b23      	ldr	r3, [pc, #140]	; (1da4 <_svfiprintf_r+0x284>)
    1d18:	a906      	add	r1, sp, #24
    1d1a:	9802      	ldr	r0, [sp, #8]
    1d1c:	f000 f8d2 	bl	1ec4 <_printf_i>
    1d20:	4607      	mov	r7, r0
    1d22:	e7a7      	b.n	1c74 <_svfiprintf_r+0x154>
    1d24:	2200      	movs	r2, #0
    1d26:	f1a1 0030 	sub.w	r0, r1, #48	; 0x30
    1d2a:	2809      	cmp	r0, #9
    1d2c:	9207      	str	r2, [sp, #28]
    1d2e:	d901      	bls.n	1d34 <_svfiprintf_r+0x214>
    1d30:	e017      	b.n	1d62 <_svfiprintf_r+0x242>
    1d32:	46d9      	mov	r9, fp
    1d34:	f899 1001 	ldrb.w	r1, [r9, #1]
    1d38:	eb02 0282 	add.w	r2, r2, r2, lsl #2
    1d3c:	eb00 0242 	add.w	r2, r0, r2, lsl #1
    1d40:	f1a1 0030 	sub.w	r0, r1, #48	; 0x30
    1d44:	2809      	cmp	r0, #9
    1d46:	f109 0b01 	add.w	fp, r9, #1
    1d4a:	d9f2      	bls.n	1d32 <_svfiprintf_r+0x212>
    1d4c:	f109 0902 	add.w	r9, r9, #2
    1d50:	9207      	str	r2, [sp, #28]
    1d52:	e768      	b.n	1c26 <_svfiprintf_r+0x106>
    1d54:	46d3      	mov	fp, sl
    1d56:	e764      	b.n	1c22 <_svfiprintf_r+0x102>
    1d58:	f04f 32ff 	mov.w	r2, #4294967295	; 0xffffffff
    1d5c:	4683      	mov	fp, r0
    1d5e:	9207      	str	r2, [sp, #28]
    1d60:	e761      	b.n	1c26 <_svfiprintf_r+0x106>
    1d62:	46cb      	mov	fp, r9
    1d64:	f109 0901 	add.w	r9, r9, #1
    1d68:	e75d      	b.n	1c26 <_svfiprintf_r+0x106>
    1d6a:	2140      	movs	r1, #64	; 0x40
    1d6c:	9303      	str	r3, [sp, #12]
    1d6e:	f7ff fd97 	bl	18a0 <_malloc_r>
    1d72:	9b03      	ldr	r3, [sp, #12]
    1d74:	f8c8 0000 	str.w	r0, [r8]
    1d78:	f8c8 0010 	str.w	r0, [r8, #16]
    1d7c:	b118      	cbz	r0, 1d86 <_svfiprintf_r+0x266>
    1d7e:	2240      	movs	r2, #64	; 0x40
    1d80:	f8c8 2014 	str.w	r2, [r8, #20]
    1d84:	e6da      	b.n	1b3c <_svfiprintf_r+0x1c>
    1d86:	230c      	movs	r3, #12
    1d88:	9a02      	ldr	r2, [sp, #8]
    1d8a:	f04f 30ff 	mov.w	r0, #4294967295	; 0xffffffff
    1d8e:	6013      	str	r3, [r2, #0]
    1d90:	e780      	b.n	1c94 <_svfiprintf_r+0x174>
    1d92:	bf00      	nop
    1d94:	00003278 	andeq	r3, r0, r8, ror r2
    1d98:	00003280 	andeq	r3, r0, r0, lsl #5
    1d9c:	00003284 	andeq	r3, r0, r4, lsl #5
    1da0:	00000000 	andeq	r0, r0, r0
    1da4:	00001969 	andeq	r1, r0, r9, ror #18

00001da8 <_printf_common>:
    1da8:	e92d 47f0 	stmdb	sp!, {r4, r5, r6, r7, r8, r9, sl, lr}
    1dac:	460c      	mov	r4, r1
    1dae:	6909      	ldr	r1, [r1, #16]
    1db0:	68a5      	ldr	r5, [r4, #8]
    1db2:	4691      	mov	r9, r2
    1db4:	428d      	cmp	r5, r1
    1db6:	bfb8      	it	lt
    1db8:	460d      	movlt	r5, r1
    1dba:	6015      	str	r5, [r2, #0]
    1dbc:	f894 1043 	ldrb.w	r1, [r4, #67]	; 0x43
    1dc0:	4606      	mov	r6, r0
    1dc2:	461f      	mov	r7, r3
    1dc4:	f8dd 8020 	ldr.w	r8, [sp, #32]
    1dc8:	b111      	cbz	r1, 1dd0 <_printf_common+0x28>
    1dca:	1c6a      	adds	r2, r5, #1
    1dcc:	f8c9 2000 	str.w	r2, [r9]
    1dd0:	6823      	ldr	r3, [r4, #0]
    1dd2:	0699      	lsls	r1, r3, #26
    1dd4:	d55f      	bpl.n	1e96 <_printf_common+0xee>
    1dd6:	f8d9 2000 	ldr.w	r2, [r9]
    1dda:	3202      	adds	r2, #2
    1ddc:	f8c9 2000 	str.w	r2, [r9]
    1de0:	6823      	ldr	r3, [r4, #0]
    1de2:	f013 0f06 	tst.w	r3, #6
    1de6:	4619      	mov	r1, r3
    1de8:	d11d      	bne.n	1e26 <_printf_common+0x7e>
    1dea:	68e1      	ldr	r1, [r4, #12]
    1dec:	1a8a      	subs	r2, r1, r2
    1dee:	2a00      	cmp	r2, #0
    1df0:	bfd8      	it	le
    1df2:	4619      	movle	r1, r3
    1df4:	dd17      	ble.n	1e26 <_printf_common+0x7e>
    1df6:	2500      	movs	r5, #0
    1df8:	f104 0a19 	add.w	sl, r4, #25
    1dfc:	e005      	b.n	1e0a <_printf_common+0x62>
    1dfe:	68e3      	ldr	r3, [r4, #12]
    1e00:	f8d9 2000 	ldr.w	r2, [r9]
    1e04:	1a9b      	subs	r3, r3, r2
    1e06:	42ab      	cmp	r3, r5
    1e08:	dd0c      	ble.n	1e24 <_printf_common+0x7c>
    1e0a:	2301      	movs	r3, #1
    1e0c:	4652      	mov	r2, sl
    1e0e:	4639      	mov	r1, r7
    1e10:	4630      	mov	r0, r6
    1e12:	47c0      	blx	r8
    1e14:	3001      	adds	r0, #1
    1e16:	f105 0501 	add.w	r5, r5, #1
    1e1a:	d1f0      	bne.n	1dfe <_printf_common+0x56>
    1e1c:	f04f 30ff 	mov.w	r0, #4294967295	; 0xffffffff
    1e20:	e8bd 87f0 	ldmia.w	sp!, {r4, r5, r6, r7, r8, r9, sl, pc}
    1e24:	6821      	ldr	r1, [r4, #0]
    1e26:	f894 3043 	ldrb.w	r3, [r4, #67]	; 0x43
    1e2a:	3300      	adds	r3, #0
    1e2c:	bf18      	it	ne
    1e2e:	2301      	movne	r3, #1
    1e30:	068a      	lsls	r2, r1, #26
    1e32:	d50a      	bpl.n	1e4a <_printf_common+0xa2>
    1e34:	2130      	movs	r1, #48	; 0x30
    1e36:	18e2      	adds	r2, r4, r3
    1e38:	f882 1043 	strb.w	r1, [r2, #67]	; 0x43
    1e3c:	f894 1045 	ldrb.w	r1, [r4, #69]	; 0x45
    1e40:	1c5a      	adds	r2, r3, #1
    1e42:	4422      	add	r2, r4
    1e44:	f882 1043 	strb.w	r1, [r2, #67]	; 0x43
    1e48:	3302      	adds	r3, #2
    1e4a:	f104 0243 	add.w	r2, r4, #67	; 0x43
    1e4e:	4639      	mov	r1, r7
    1e50:	4630      	mov	r0, r6
    1e52:	47c0      	blx	r8
    1e54:	3001      	adds	r0, #1
    1e56:	d0e1      	beq.n	1e1c <_printf_common+0x74>
    1e58:	e9d4 2002 	ldrd	r2, r0, [r4, #8]
    1e5c:	6823      	ldr	r3, [r4, #0]
    1e5e:	f8d9 5000 	ldr.w	r5, [r9]
    1e62:	f003 0306 	and.w	r3, r3, #6
    1e66:	2b04      	cmp	r3, #4
    1e68:	6921      	ldr	r1, [r4, #16]
    1e6a:	d01a      	beq.n	1ea2 <_printf_common+0xfa>
    1e6c:	428a      	cmp	r2, r1
    1e6e:	dd1f      	ble.n	1eb0 <_printf_common+0x108>
    1e70:	f04f 0900 	mov.w	r9, #0
    1e74:	1a52      	subs	r2, r2, r1
    1e76:	4491      	add	r9, r2
    1e78:	2500      	movs	r5, #0
    1e7a:	341a      	adds	r4, #26
    1e7c:	e001      	b.n	1e82 <_printf_common+0xda>
    1e7e:	454d      	cmp	r5, r9
    1e80:	d016      	beq.n	1eb0 <_printf_common+0x108>
    1e82:	2301      	movs	r3, #1
    1e84:	4622      	mov	r2, r4
    1e86:	4639      	mov	r1, r7
    1e88:	4630      	mov	r0, r6
    1e8a:	47c0      	blx	r8
    1e8c:	3001      	adds	r0, #1
    1e8e:	f105 0501 	add.w	r5, r5, #1
    1e92:	d1f4      	bne.n	1e7e <_printf_common+0xd6>
    1e94:	e7c2      	b.n	1e1c <_printf_common+0x74>
    1e96:	f013 0f06 	tst.w	r3, #6
    1e9a:	d10c      	bne.n	1eb6 <_printf_common+0x10e>
    1e9c:	f8d9 2000 	ldr.w	r2, [r9]
    1ea0:	e7a3      	b.n	1dea <_printf_common+0x42>
    1ea2:	1b40      	subs	r0, r0, r5
    1ea4:	428a      	cmp	r2, r1
    1ea6:	ea20 79e0 	bic.w	r9, r0, r0, asr #31
    1eaa:	dce3      	bgt.n	1e74 <_printf_common+0xcc>
    1eac:	2800      	cmp	r0, #0
    1eae:	dce3      	bgt.n	1e78 <_printf_common+0xd0>
    1eb0:	2000      	movs	r0, #0
    1eb2:	e8bd 87f0 	ldmia.w	sp!, {r4, r5, r6, r7, r8, r9, sl, pc}
    1eb6:	f894 3043 	ldrb.w	r3, [r4, #67]	; 0x43
    1eba:	3300      	adds	r3, #0
    1ebc:	bf18      	it	ne
    1ebe:	2301      	movne	r3, #1
    1ec0:	e7c3      	b.n	1e4a <_printf_common+0xa2>
    1ec2:	bf00      	nop

00001ec4 <_printf_i>:
    1ec4:	e92d 43f0 	stmdb	sp!, {r4, r5, r6, r7, r8, r9, lr}
    1ec8:	460c      	mov	r4, r1
    1eca:	7e09      	ldrb	r1, [r1, #24]
    1ecc:	b085      	sub	sp, #20
    1ece:	296e      	cmp	r1, #110	; 0x6e
    1ed0:	4606      	mov	r6, r0
    1ed2:	4617      	mov	r7, r2
    1ed4:	4698      	mov	r8, r3
    1ed6:	f104 0c43 	add.w	ip, r4, #67	; 0x43
    1eda:	9d0c      	ldr	r5, [sp, #48]	; 0x30
    1edc:	d04a      	beq.n	1f74 <_printf_i+0xb0>
    1ede:	d80f      	bhi.n	1f00 <_printf_i+0x3c>
    1ee0:	2963      	cmp	r1, #99	; 0x63
    1ee2:	f000 80fe 	beq.w	20e2 <_printf_i+0x21e>
    1ee6:	f200 80be 	bhi.w	2066 <_printf_i+0x1a2>
    1eea:	2900      	cmp	r1, #0
    1eec:	d04e      	beq.n	1f8c <_printf_i+0xc8>
    1eee:	2958      	cmp	r1, #88	; 0x58
    1ef0:	f040 80e0 	bne.w	20b4 <_printf_i+0x1f0>
    1ef4:	f884 1045 	strb.w	r1, [r4, #69]	; 0x45
    1ef8:	6822      	ldr	r2, [r4, #0]
    1efa:	f8df e244 	ldr.w	lr, [pc, #580]	; 2140 <_printf_i+0x27c>
    1efe:	e012      	b.n	1f26 <_printf_i+0x62>
    1f00:	2973      	cmp	r1, #115	; 0x73
    1f02:	f000 80c5 	beq.w	2090 <_printf_i+0x1cc>
    1f06:	d87a      	bhi.n	1ffe <_printf_i+0x13a>
    1f08:	296f      	cmp	r1, #111	; 0x6f
    1f0a:	f000 80da 	beq.w	20c2 <_printf_i+0x1fe>
    1f0e:	2970      	cmp	r1, #112	; 0x70
    1f10:	f040 80d0 	bne.w	20b4 <_printf_i+0x1f0>
    1f14:	6820      	ldr	r0, [r4, #0]
    1f16:	f040 0220 	orr.w	r2, r0, #32
    1f1a:	6022      	str	r2, [r4, #0]
    1f1c:	2378      	movs	r3, #120	; 0x78
    1f1e:	f8df e224 	ldr.w	lr, [pc, #548]	; 2144 <_printf_i+0x280>
    1f22:	f884 3045 	strb.w	r3, [r4, #69]	; 0x45
    1f26:	682b      	ldr	r3, [r5, #0]
    1f28:	1d19      	adds	r1, r3, #4
    1f2a:	681b      	ldr	r3, [r3, #0]
    1f2c:	6029      	str	r1, [r5, #0]
    1f2e:	0615      	lsls	r5, r2, #24
    1f30:	d402      	bmi.n	1f38 <_printf_i+0x74>
    1f32:	0650      	lsls	r0, r2, #25
    1f34:	bf48      	it	mi
    1f36:	b29b      	uxthmi	r3, r3
    1f38:	07d1      	lsls	r1, r2, #31
    1f3a:	bf44      	itt	mi
    1f3c:	f042 0220 	orrmi.w	r2, r2, #32
    1f40:	6022      	strmi	r2, [r4, #0]
    1f42:	2b00      	cmp	r3, #0
    1f44:	d16c      	bne.n	2020 <_printf_i+0x15c>
    1f46:	e9d4 1200 	ldrd	r1, r2, [r4]
    1f4a:	f884 3043 	strb.w	r3, [r4, #67]	; 0x43
    1f4e:	2a00      	cmp	r2, #0
    1f50:	f021 0320 	bic.w	r3, r1, #32
    1f54:	6023      	str	r3, [r4, #0]
    1f56:	60a2      	str	r2, [r4, #8]
    1f58:	db7d      	blt.n	2056 <_printf_i+0x192>
    1f5a:	f021 0124 	bic.w	r1, r1, #36	; 0x24
    1f5e:	6021      	str	r1, [r4, #0]
    1f60:	2110      	movs	r1, #16
    1f62:	2a00      	cmp	r2, #0
    1f64:	d178      	bne.n	2058 <_printf_i+0x194>
    1f66:	4665      	mov	r5, ip
    1f68:	2908      	cmp	r1, #8
    1f6a:	d04e      	beq.n	200a <_printf_i+0x146>
    1f6c:	ebac 0305 	sub.w	r3, ip, r5
    1f70:	6123      	str	r3, [r4, #16]
    1f72:	e00e      	b.n	1f92 <_printf_i+0xce>
    1f74:	682b      	ldr	r3, [r5, #0]
    1f76:	6822      	ldr	r2, [r4, #0]
    1f78:	1d18      	adds	r0, r3, #4
    1f7a:	6961      	ldr	r1, [r4, #20]
    1f7c:	6028      	str	r0, [r5, #0]
    1f7e:	0615      	lsls	r5, r2, #24
    1f80:	681b      	ldr	r3, [r3, #0]
    1f82:	d402      	bmi.n	1f8a <_printf_i+0xc6>
    1f84:	0650      	lsls	r0, r2, #25
    1f86:	f100 80c6 	bmi.w	2116 <_printf_i+0x252>
    1f8a:	6019      	str	r1, [r3, #0]
    1f8c:	2300      	movs	r3, #0
    1f8e:	4665      	mov	r5, ip
    1f90:	6123      	str	r3, [r4, #16]
    1f92:	f8cd 8000 	str.w	r8, [sp]
    1f96:	463b      	mov	r3, r7
    1f98:	aa03      	add	r2, sp, #12
    1f9a:	4621      	mov	r1, r4
    1f9c:	4630      	mov	r0, r6
    1f9e:	f7ff ff03 	bl	1da8 <_printf_common>
    1fa2:	3001      	adds	r0, #1
    1fa4:	d020      	beq.n	1fe8 <_printf_i+0x124>
    1fa6:	462a      	mov	r2, r5
    1fa8:	6923      	ldr	r3, [r4, #16]
    1faa:	4639      	mov	r1, r7
    1fac:	4630      	mov	r0, r6
    1fae:	47c0      	blx	r8
    1fb0:	3001      	adds	r0, #1
    1fb2:	d019      	beq.n	1fe8 <_printf_i+0x124>
    1fb4:	6822      	ldr	r2, [r4, #0]
    1fb6:	9803      	ldr	r0, [sp, #12]
    1fb8:	0792      	lsls	r2, r2, #30
    1fba:	68e3      	ldr	r3, [r4, #12]
    1fbc:	d519      	bpl.n	1ff2 <_printf_i+0x12e>
    1fbe:	1a1a      	subs	r2, r3, r0
    1fc0:	2a00      	cmp	r2, #0
    1fc2:	dd16      	ble.n	1ff2 <_printf_i+0x12e>
    1fc4:	2500      	movs	r5, #0
    1fc6:	f104 0919 	add.w	r9, r4, #25
    1fca:	e004      	b.n	1fd6 <_printf_i+0x112>
    1fcc:	68e3      	ldr	r3, [r4, #12]
    1fce:	9803      	ldr	r0, [sp, #12]
    1fd0:	1a1a      	subs	r2, r3, r0
    1fd2:	42aa      	cmp	r2, r5
    1fd4:	dd0d      	ble.n	1ff2 <_printf_i+0x12e>
    1fd6:	2301      	movs	r3, #1
    1fd8:	464a      	mov	r2, r9
    1fda:	4639      	mov	r1, r7
    1fdc:	4630      	mov	r0, r6
    1fde:	47c0      	blx	r8
    1fe0:	3001      	adds	r0, #1
    1fe2:	f105 0501 	add.w	r5, r5, #1
    1fe6:	d1f1      	bne.n	1fcc <_printf_i+0x108>
    1fe8:	f04f 30ff 	mov.w	r0, #4294967295	; 0xffffffff
    1fec:	b005      	add	sp, #20
    1fee:	e8bd 83f0 	ldmia.w	sp!, {r4, r5, r6, r7, r8, r9, pc}
    1ff2:	4298      	cmp	r0, r3
    1ff4:	bfb8      	it	lt
    1ff6:	4618      	movlt	r0, r3
    1ff8:	b005      	add	sp, #20
    1ffa:	e8bd 83f0 	ldmia.w	sp!, {r4, r5, r6, r7, r8, r9, pc}
    1ffe:	2975      	cmp	r1, #117	; 0x75
    2000:	d05f      	beq.n	20c2 <_printf_i+0x1fe>
    2002:	2978      	cmp	r1, #120	; 0x78
    2004:	d156      	bne.n	20b4 <_printf_i+0x1f0>
    2006:	6822      	ldr	r2, [r4, #0]
    2008:	e788      	b.n	1f1c <_printf_i+0x58>
    200a:	6823      	ldr	r3, [r4, #0]
    200c:	07db      	lsls	r3, r3, #31
    200e:	d5ad      	bpl.n	1f6c <_printf_i+0xa8>
    2010:	6862      	ldr	r2, [r4, #4]
    2012:	6923      	ldr	r3, [r4, #16]
    2014:	429a      	cmp	r2, r3
    2016:	dca9      	bgt.n	1f6c <_printf_i+0xa8>
    2018:	2330      	movs	r3, #48	; 0x30
    201a:	3d01      	subs	r5, #1
    201c:	702b      	strb	r3, [r5, #0]
    201e:	e7a5      	b.n	1f6c <_printf_i+0xa8>
    2020:	2110      	movs	r1, #16
    2022:	2200      	movs	r2, #0
    2024:	f884 2043 	strb.w	r2, [r4, #67]	; 0x43
    2028:	6862      	ldr	r2, [r4, #4]
    202a:	2a00      	cmp	r2, #0
    202c:	60a2      	str	r2, [r4, #8]
    202e:	db2c      	blt.n	208a <_printf_i+0x1c6>
    2030:	6820      	ldr	r0, [r4, #0]
    2032:	f020 0004 	bic.w	r0, r0, #4
    2036:	6020      	str	r0, [r4, #0]
    2038:	2b00      	cmp	r3, #0
    203a:	d092      	beq.n	1f62 <_printf_i+0x9e>
    203c:	4665      	mov	r5, ip
    203e:	fbb3 f2f1 	udiv	r2, r3, r1
    2042:	fb01 3312 	mls	r3, r1, r2, r3
    2046:	f81e 0003 	ldrb.w	r0, [lr, r3]
    204a:	4613      	mov	r3, r2
    204c:	f805 0d01 	strb.w	r0, [r5, #-1]!
    2050:	2a00      	cmp	r2, #0
    2052:	d1f4      	bne.n	203e <_printf_i+0x17a>
    2054:	e788      	b.n	1f68 <_printf_i+0xa4>
    2056:	2110      	movs	r1, #16
    2058:	f89e 3000 	ldrb.w	r3, [lr]
    205c:	f104 0542 	add.w	r5, r4, #66	; 0x42
    2060:	f884 3042 	strb.w	r3, [r4, #66]	; 0x42
    2064:	e780      	b.n	1f68 <_printf_i+0xa4>
    2066:	2964      	cmp	r1, #100	; 0x64
    2068:	d001      	beq.n	206e <_printf_i+0x1aa>
    206a:	2969      	cmp	r1, #105	; 0x69
    206c:	d122      	bne.n	20b4 <_printf_i+0x1f0>
    206e:	6820      	ldr	r0, [r4, #0]
    2070:	682b      	ldr	r3, [r5, #0]
    2072:	0601      	lsls	r1, r0, #24
    2074:	f103 0204 	add.w	r2, r3, #4
    2078:	d545      	bpl.n	2106 <_printf_i+0x242>
    207a:	681b      	ldr	r3, [r3, #0]
    207c:	602a      	str	r2, [r5, #0]
    207e:	2b00      	cmp	r3, #0
    2080:	db4b      	blt.n	211a <_printf_i+0x256>
    2082:	210a      	movs	r1, #10
    2084:	f8df e0b8 	ldr.w	lr, [pc, #184]	; 2140 <_printf_i+0x27c>
    2088:	e7ce      	b.n	2028 <_printf_i+0x164>
    208a:	2b00      	cmp	r3, #0
    208c:	d1d6      	bne.n	203c <_printf_i+0x178>
    208e:	e7e3      	b.n	2058 <_printf_i+0x194>
    2090:	682b      	ldr	r3, [r5, #0]
    2092:	6862      	ldr	r2, [r4, #4]
    2094:	1d19      	adds	r1, r3, #4
    2096:	6029      	str	r1, [r5, #0]
    2098:	681d      	ldr	r5, [r3, #0]
    209a:	2100      	movs	r1, #0
    209c:	4628      	mov	r0, r5
    209e:	f000 f865 	bl	216c <memchr>
    20a2:	2800      	cmp	r0, #0
    20a4:	d045      	beq.n	2132 <_printf_i+0x26e>
    20a6:	1b40      	subs	r0, r0, r5
    20a8:	6060      	str	r0, [r4, #4]
    20aa:	6120      	str	r0, [r4, #16]
    20ac:	2300      	movs	r3, #0
    20ae:	f884 3043 	strb.w	r3, [r4, #67]	; 0x43
    20b2:	e76e      	b.n	1f92 <_printf_i+0xce>
    20b4:	2301      	movs	r3, #1
    20b6:	f884 1042 	strb.w	r1, [r4, #66]	; 0x42
    20ba:	6123      	str	r3, [r4, #16]
    20bc:	f104 0542 	add.w	r5, r4, #66	; 0x42
    20c0:	e7f4      	b.n	20ac <_printf_i+0x1e8>
    20c2:	6820      	ldr	r0, [r4, #0]
    20c4:	682b      	ldr	r3, [r5, #0]
    20c6:	f010 0f80 	tst.w	r0, #128	; 0x80
    20ca:	f103 0204 	add.w	r2, r3, #4
    20ce:	d013      	beq.n	20f8 <_printf_i+0x234>
    20d0:	681b      	ldr	r3, [r3, #0]
    20d2:	602a      	str	r2, [r5, #0]
    20d4:	296f      	cmp	r1, #111	; 0x6f
    20d6:	bf0c      	ite	eq
    20d8:	2108      	moveq	r1, #8
    20da:	210a      	movne	r1, #10
    20dc:	f8df e060 	ldr.w	lr, [pc, #96]	; 2140 <_printf_i+0x27c>
    20e0:	e79f      	b.n	2022 <_printf_i+0x15e>
    20e2:	2201      	movs	r2, #1
    20e4:	682b      	ldr	r3, [r5, #0]
    20e6:	1d19      	adds	r1, r3, #4
    20e8:	681b      	ldr	r3, [r3, #0]
    20ea:	6029      	str	r1, [r5, #0]
    20ec:	f104 0542 	add.w	r5, r4, #66	; 0x42
    20f0:	f884 3042 	strb.w	r3, [r4, #66]	; 0x42
    20f4:	6122      	str	r2, [r4, #16]
    20f6:	e7d9      	b.n	20ac <_printf_i+0x1e8>
    20f8:	0640      	lsls	r0, r0, #25
    20fa:	bf53      	iteet	pl
    20fc:	681b      	ldrpl	r3, [r3, #0]
    20fe:	602a      	strmi	r2, [r5, #0]
    2100:	881b      	ldrhmi	r3, [r3, #0]
    2102:	602a      	strpl	r2, [r5, #0]
    2104:	e7e6      	b.n	20d4 <_printf_i+0x210>
    2106:	0641      	lsls	r1, r0, #25
    2108:	bf53      	iteet	pl
    210a:	681b      	ldrpl	r3, [r3, #0]
    210c:	602a      	strmi	r2, [r5, #0]
    210e:	f9b3 3000 	ldrshmi.w	r3, [r3]
    2112:	602a      	strpl	r2, [r5, #0]
    2114:	e7b3      	b.n	207e <_printf_i+0x1ba>
    2116:	8019      	strh	r1, [r3, #0]
    2118:	e738      	b.n	1f8c <_printf_i+0xc8>
    211a:	212d      	movs	r1, #45	; 0x2d
    211c:	6862      	ldr	r2, [r4, #4]
    211e:	425b      	negs	r3, r3
    2120:	2a00      	cmp	r2, #0
    2122:	f884 1043 	strb.w	r1, [r4, #67]	; 0x43
    2126:	60a2      	str	r2, [r4, #8]
    2128:	db05      	blt.n	2136 <_printf_i+0x272>
    212a:	210a      	movs	r1, #10
    212c:	f8df e010 	ldr.w	lr, [pc, #16]	; 2140 <_printf_i+0x27c>
    2130:	e77f      	b.n	2032 <_printf_i+0x16e>
    2132:	6860      	ldr	r0, [r4, #4]
    2134:	e7b9      	b.n	20aa <_printf_i+0x1e6>
    2136:	f8df e008 	ldr.w	lr, [pc, #8]	; 2140 <_printf_i+0x27c>
    213a:	210a      	movs	r1, #10
    213c:	e77e      	b.n	203c <_printf_i+0x178>
    213e:	bf00      	nop
    2140:	0000328c 	andeq	r3, r0, ip, lsl #5
    2144:	000032a0 	andeq	r3, r0, r0, lsr #5

00002148 <_sbrk_r>:
    2148:	b538      	push	{r3, r4, r5, lr}
    214a:	2300      	movs	r3, #0
    214c:	4c06      	ldr	r4, [pc, #24]	; (2168 <_sbrk_r+0x20>)
    214e:	4605      	mov	r5, r0
    2150:	4608      	mov	r0, r1
    2152:	6023      	str	r3, [r4, #0]
    2154:	f000 fa92 	bl	267c <_sbrk>
    2158:	1c43      	adds	r3, r0, #1
    215a:	d000      	beq.n	215e <_sbrk_r+0x16>
    215c:	bd38      	pop	{r3, r4, r5, pc}
    215e:	6823      	ldr	r3, [r4, #0]
    2160:	2b00      	cmp	r3, #0
    2162:	d0fb      	beq.n	215c <_sbrk_r+0x14>
    2164:	602b      	str	r3, [r5, #0]
    2166:	bd38      	pop	{r3, r4, r5, pc}
    2168:	2000012c 	andcs	r0, r0, ip, lsr #2

0000216c <memchr>:
    216c:	0783      	lsls	r3, r0, #30
    216e:	b470      	push	{r4, r5, r6}
    2170:	b2cd      	uxtb	r5, r1
    2172:	d03d      	beq.n	21f0 <memchr+0x84>
    2174:	1e54      	subs	r4, r2, #1
    2176:	b30a      	cbz	r2, 21bc <memchr+0x50>
    2178:	7803      	ldrb	r3, [r0, #0]
    217a:	42ab      	cmp	r3, r5
    217c:	d01f      	beq.n	21be <memchr+0x52>
    217e:	1c43      	adds	r3, r0, #1
    2180:	e005      	b.n	218e <memchr+0x22>
    2182:	f114 34ff 	adds.w	r4, r4, #4294967295	; 0xffffffff
    2186:	d319      	bcc.n	21bc <memchr+0x50>
    2188:	7802      	ldrb	r2, [r0, #0]
    218a:	42aa      	cmp	r2, r5
    218c:	d017      	beq.n	21be <memchr+0x52>
    218e:	f013 0f03 	tst.w	r3, #3
    2192:	4618      	mov	r0, r3
    2194:	f103 0301 	add.w	r3, r3, #1
    2198:	d1f3      	bne.n	2182 <memchr+0x16>
    219a:	2c03      	cmp	r4, #3
    219c:	d811      	bhi.n	21c2 <memchr+0x56>
    219e:	b34c      	cbz	r4, 21f4 <memchr+0x88>
    21a0:	7803      	ldrb	r3, [r0, #0]
    21a2:	42ab      	cmp	r3, r5
    21a4:	d00b      	beq.n	21be <memchr+0x52>
    21a6:	4404      	add	r4, r0
    21a8:	1c43      	adds	r3, r0, #1
    21aa:	e002      	b.n	21b2 <memchr+0x46>
    21ac:	7802      	ldrb	r2, [r0, #0]
    21ae:	42aa      	cmp	r2, r5
    21b0:	d005      	beq.n	21be <memchr+0x52>
    21b2:	429c      	cmp	r4, r3
    21b4:	4618      	mov	r0, r3
    21b6:	f103 0301 	add.w	r3, r3, #1
    21ba:	d1f7      	bne.n	21ac <memchr+0x40>
    21bc:	2000      	movs	r0, #0
    21be:	bc70      	pop	{r4, r5, r6}
    21c0:	4770      	bx	lr
    21c2:	4606      	mov	r6, r0
    21c4:	020a      	lsls	r2, r1, #8
    21c6:	b292      	uxth	r2, r2
    21c8:	432a      	orrs	r2, r5
    21ca:	ea42 4202 	orr.w	r2, r2, r2, lsl #16
    21ce:	6833      	ldr	r3, [r6, #0]
    21d0:	4630      	mov	r0, r6
    21d2:	4053      	eors	r3, r2
    21d4:	f1a3 3101 	sub.w	r1, r3, #16843009	; 0x1010101
    21d8:	ea21 0303 	bic.w	r3, r1, r3
    21dc:	f013 3f80 	tst.w	r3, #2155905152	; 0x80808080
    21e0:	f106 0604 	add.w	r6, r6, #4
    21e4:	d1dc      	bne.n	21a0 <memchr+0x34>
    21e6:	3c04      	subs	r4, #4
    21e8:	2c03      	cmp	r4, #3
    21ea:	4630      	mov	r0, r6
    21ec:	d8ef      	bhi.n	21ce <memchr+0x62>
    21ee:	e7d6      	b.n	219e <memchr+0x32>
    21f0:	4614      	mov	r4, r2
    21f2:	e7d2      	b.n	219a <memchr+0x2e>
    21f4:	4620      	mov	r0, r4
    21f6:	e7e2      	b.n	21be <memchr+0x52>

000021f8 <memmove>:
    21f8:	4288      	cmp	r0, r1
    21fa:	b4f0      	push	{r4, r5, r6, r7}
    21fc:	d90d      	bls.n	221a <memmove+0x22>
    21fe:	188b      	adds	r3, r1, r2
    2200:	4283      	cmp	r3, r0
    2202:	d90a      	bls.n	221a <memmove+0x22>
    2204:	1884      	adds	r4, r0, r2
    2206:	b132      	cbz	r2, 2216 <memmove+0x1e>
    2208:	4622      	mov	r2, r4
    220a:	f813 4d01 	ldrb.w	r4, [r3, #-1]!
    220e:	4299      	cmp	r1, r3
    2210:	f802 4d01 	strb.w	r4, [r2, #-1]!
    2214:	d1f9      	bne.n	220a <memmove+0x12>
    2216:	bcf0      	pop	{r4, r5, r6, r7}
    2218:	4770      	bx	lr
    221a:	2a0f      	cmp	r2, #15
    221c:	d948      	bls.n	22b0 <memmove+0xb8>
    221e:	ea40 0301 	orr.w	r3, r0, r1
    2222:	079b      	lsls	r3, r3, #30
    2224:	d146      	bne.n	22b4 <memmove+0xbc>
    2226:	f1a2 0310 	sub.w	r3, r2, #16
    222a:	091b      	lsrs	r3, r3, #4
    222c:	f101 0720 	add.w	r7, r1, #32
    2230:	eb07 1703 	add.w	r7, r7, r3, lsl #4
    2234:	f101 0410 	add.w	r4, r1, #16
    2238:	f100 0510 	add.w	r5, r0, #16
    223c:	f854 6c10 	ldr.w	r6, [r4, #-16]
    2240:	3410      	adds	r4, #16
    2242:	f845 6c10 	str.w	r6, [r5, #-16]
    2246:	f854 6c1c 	ldr.w	r6, [r4, #-28]
    224a:	3510      	adds	r5, #16
    224c:	f845 6c1c 	str.w	r6, [r5, #-28]
    2250:	f854 6c18 	ldr.w	r6, [r4, #-24]
    2254:	f845 6c18 	str.w	r6, [r5, #-24]
    2258:	f854 6c14 	ldr.w	r6, [r4, #-20]
    225c:	42bc      	cmp	r4, r7
    225e:	f845 6c14 	str.w	r6, [r5, #-20]
    2262:	d1eb      	bne.n	223c <memmove+0x44>
    2264:	3301      	adds	r3, #1
    2266:	f002 050f 	and.w	r5, r2, #15
    226a:	011b      	lsls	r3, r3, #4
    226c:	2d03      	cmp	r5, #3
    226e:	4419      	add	r1, r3
    2270:	4403      	add	r3, r0
    2272:	d921      	bls.n	22b8 <memmove+0xc0>
    2274:	460f      	mov	r7, r1
    2276:	462c      	mov	r4, r5
    2278:	1f1e      	subs	r6, r3, #4
    227a:	f857 cb04 	ldr.w	ip, [r7], #4
    227e:	3c04      	subs	r4, #4
    2280:	2c03      	cmp	r4, #3
    2282:	f846 cf04 	str.w	ip, [r6, #4]!
    2286:	d8f8      	bhi.n	227a <memmove+0x82>
    2288:	1f2c      	subs	r4, r5, #4
    228a:	f024 0403 	bic.w	r4, r4, #3
    228e:	3404      	adds	r4, #4
    2290:	4423      	add	r3, r4
    2292:	4421      	add	r1, r4
    2294:	f002 0203 	and.w	r2, r2, #3
    2298:	2a00      	cmp	r2, #0
    229a:	d0bc      	beq.n	2216 <memmove+0x1e>
    229c:	3b01      	subs	r3, #1
    229e:	440a      	add	r2, r1
    22a0:	f811 4b01 	ldrb.w	r4, [r1], #1
    22a4:	4291      	cmp	r1, r2
    22a6:	f803 4f01 	strb.w	r4, [r3, #1]!
    22aa:	d1f9      	bne.n	22a0 <memmove+0xa8>
    22ac:	bcf0      	pop	{r4, r5, r6, r7}
    22ae:	4770      	bx	lr
    22b0:	4603      	mov	r3, r0
    22b2:	e7f1      	b.n	2298 <memmove+0xa0>
    22b4:	4603      	mov	r3, r0
    22b6:	e7f1      	b.n	229c <memmove+0xa4>
    22b8:	462a      	mov	r2, r5
    22ba:	e7ed      	b.n	2298 <memmove+0xa0>

000022bc <__malloc_lock>:
    22bc:	4770      	bx	lr
    22be:	bf00      	nop

000022c0 <__malloc_unlock>:
    22c0:	4770      	bx	lr
    22c2:	bf00      	nop

000022c4 <_free_r>:
    22c4:	2900      	cmp	r1, #0
    22c6:	d034      	beq.n	2332 <_free_r+0x6e>
    22c8:	b538      	push	{r3, r4, r5, lr}
    22ca:	f851 3c04 	ldr.w	r3, [r1, #-4]
    22ce:	1f0c      	subs	r4, r1, #4
    22d0:	2b00      	cmp	r3, #0
    22d2:	bfb8      	it	lt
    22d4:	18e4      	addlt	r4, r4, r3
    22d6:	4605      	mov	r5, r0
    22d8:	f7ff fff0 	bl	22bc <__malloc_lock>
    22dc:	4b22      	ldr	r3, [pc, #136]	; (2368 <_free_r+0xa4>)
    22de:	681a      	ldr	r2, [r3, #0]
    22e0:	b12a      	cbz	r2, 22ee <_free_r+0x2a>
    22e2:	42a2      	cmp	r2, r4
    22e4:	d90d      	bls.n	2302 <_free_r+0x3e>
    22e6:	6821      	ldr	r1, [r4, #0]
    22e8:	1860      	adds	r0, r4, r1
    22ea:	4282      	cmp	r2, r0
    22ec:	d035      	beq.n	235a <_free_r+0x96>
    22ee:	6062      	str	r2, [r4, #4]
    22f0:	4628      	mov	r0, r5
    22f2:	601c      	str	r4, [r3, #0]
    22f4:	e8bd 4038 	ldmia.w	sp!, {r3, r4, r5, lr}
    22f8:	f7ff bfe2 	b.w	22c0 <__malloc_unlock>
    22fc:	42a3      	cmp	r3, r4
    22fe:	d803      	bhi.n	2308 <_free_r+0x44>
    2300:	461a      	mov	r2, r3
    2302:	6853      	ldr	r3, [r2, #4]
    2304:	2b00      	cmp	r3, #0
    2306:	d1f9      	bne.n	22fc <_free_r+0x38>
    2308:	6811      	ldr	r1, [r2, #0]
    230a:	1850      	adds	r0, r2, r1
    230c:	42a0      	cmp	r0, r4
    230e:	d018      	beq.n	2342 <_free_r+0x7e>
    2310:	d810      	bhi.n	2334 <_free_r+0x70>
    2312:	6821      	ldr	r1, [r4, #0]
    2314:	1860      	adds	r0, r4, r1
    2316:	4283      	cmp	r3, r0
    2318:	bf03      	ittte	eq
    231a:	e9d3 0300 	ldrdeq	r0, r3, [r3]
    231e:	1809      	addeq	r1, r1, r0
    2320:	e9c4 1300 	strdeq	r1, r3, [r4]
    2324:	6063      	strne	r3, [r4, #4]
    2326:	6054      	str	r4, [r2, #4]
    2328:	4628      	mov	r0, r5
    232a:	e8bd 4038 	ldmia.w	sp!, {r3, r4, r5, lr}
    232e:	f7ff bfc7 	b.w	22c0 <__malloc_unlock>
    2332:	4770      	bx	lr
    2334:	230c      	movs	r3, #12
    2336:	4628      	mov	r0, r5
    2338:	602b      	str	r3, [r5, #0]
    233a:	e8bd 4038 	ldmia.w	sp!, {r3, r4, r5, lr}
    233e:	f7ff bfbf 	b.w	22c0 <__malloc_unlock>
    2342:	6820      	ldr	r0, [r4, #0]
    2344:	4401      	add	r1, r0
    2346:	1850      	adds	r0, r2, r1
    2348:	4283      	cmp	r3, r0
    234a:	6011      	str	r1, [r2, #0]
    234c:	d1ec      	bne.n	2328 <_free_r+0x64>
    234e:	e9d3 0300 	ldrd	r0, r3, [r3]
    2352:	4401      	add	r1, r0
    2354:	e9c2 1300 	strd	r1, r3, [r2]
    2358:	e7e6      	b.n	2328 <_free_r+0x64>
    235a:	e9d2 0200 	ldrd	r0, r2, [r2]
    235e:	4401      	add	r1, r0
    2360:	e9c4 1200 	strd	r1, r2, [r4]
    2364:	e7c4      	b.n	22f0 <_free_r+0x2c>
    2366:	bf00      	nop
    2368:	20000074 	andcs	r0, r0, r4, ror r0

0000236c <_realloc_r>:
    236c:	b1e1      	cbz	r1, 23a8 <_realloc_r+0x3c>
    236e:	b5f8      	push	{r3, r4, r5, r6, r7, lr}
    2370:	4614      	mov	r4, r2
    2372:	b1e2      	cbz	r2, 23ae <_realloc_r+0x42>
    2374:	4606      	mov	r6, r0
    2376:	460d      	mov	r5, r1
    2378:	f000 f81e 	bl	23b8 <_malloc_usable_size_r>
    237c:	42a0      	cmp	r0, r4
    237e:	d302      	bcc.n	2386 <_realloc_r+0x1a>
    2380:	462f      	mov	r7, r5
    2382:	4638      	mov	r0, r7
    2384:	bdf8      	pop	{r3, r4, r5, r6, r7, pc}
    2386:	4621      	mov	r1, r4
    2388:	4630      	mov	r0, r6
    238a:	f7ff fa89 	bl	18a0 <_malloc_r>
    238e:	4607      	mov	r7, r0
    2390:	2800      	cmp	r0, #0
    2392:	d0f6      	beq.n	2382 <_realloc_r+0x16>
    2394:	4622      	mov	r2, r4
    2396:	4629      	mov	r1, r5
    2398:	f7ff f8c2 	bl	1520 <memcpy>
    239c:	4630      	mov	r0, r6
    239e:	4629      	mov	r1, r5
    23a0:	f7ff ff90 	bl	22c4 <_free_r>
    23a4:	4638      	mov	r0, r7
    23a6:	bdf8      	pop	{r3, r4, r5, r6, r7, pc}
    23a8:	4611      	mov	r1, r2
    23aa:	f7ff ba79 	b.w	18a0 <_malloc_r>
    23ae:	f7ff ff89 	bl	22c4 <_free_r>
    23b2:	4627      	mov	r7, r4
    23b4:	e7e5      	b.n	2382 <_realloc_r+0x16>
    23b6:	bf00      	nop

000023b8 <_malloc_usable_size_r>:
    23b8:	f851 3c04 	ldr.w	r3, [r1, #-4]
    23bc:	1f18      	subs	r0, r3, #4
    23be:	2b00      	cmp	r3, #0
    23c0:	bfbc      	itt	lt
    23c2:	580b      	ldrlt	r3, [r1, r0]
    23c4:	18c0      	addlt	r0, r0, r3
    23c6:	4770      	bx	lr

000023c8 <findslot>:
    23c8:	4b0a      	ldr	r3, [pc, #40]	; (23f4 <findslot+0x2c>)
    23ca:	b510      	push	{r4, lr}
    23cc:	4604      	mov	r4, r0
    23ce:	6818      	ldr	r0, [r3, #0]
    23d0:	b108      	cbz	r0, 23d6 <findslot+0xe>
    23d2:	6983      	ldr	r3, [r0, #24]
    23d4:	b14b      	cbz	r3, 23ea <findslot+0x22>
    23d6:	2c13      	cmp	r4, #19
    23d8:	d80a      	bhi.n	23f0 <findslot+0x28>
    23da:	4807      	ldr	r0, [pc, #28]	; (23f8 <findslot+0x30>)
    23dc:	f850 3034 	ldr.w	r3, [r0, r4, lsl #3]
    23e0:	3301      	adds	r3, #1
    23e2:	d005      	beq.n	23f0 <findslot+0x28>
    23e4:	eb00 00c4 	add.w	r0, r0, r4, lsl #3
    23e8:	bd10      	pop	{r4, pc}
    23ea:	f000 fd1b 	bl	2e24 <__sinit>
    23ee:	e7f2      	b.n	23d6 <findslot+0xe>
    23f0:	2000      	movs	r0, #0
    23f2:	bd10      	pop	{r4, pc}
    23f4:	20000000 	andcs	r0, r0, r0
    23f8:	2000007c 	andcs	r0, r0, ip, ror r0

000023fc <checkerror.part.0>:
    23fc:	b570      	push	{r4, r5, r6, lr}
    23fe:	f000 fc23 	bl	2c48 <__errno>
    2402:	2413      	movs	r4, #19
    2404:	4605      	mov	r5, r0
    2406:	2600      	movs	r6, #0
    2408:	4620      	mov	r0, r4
    240a:	4631      	mov	r1, r6
    240c:	beab      	bkpt	0x00ab
    240e:	4604      	mov	r4, r0
    2410:	f04f 30ff 	mov.w	r0, #4294967295	; 0xffffffff
    2414:	602c      	str	r4, [r5, #0]
    2416:	bd70      	pop	{r4, r5, r6, pc}

00002418 <_swiread>:
    2418:	b530      	push	{r4, r5, lr}
    241a:	b085      	sub	sp, #20
    241c:	e9cd 0101 	strd	r0, r1, [sp, #4]
    2420:	9203      	str	r2, [sp, #12]
    2422:	2406      	movs	r4, #6
    2424:	ad01      	add	r5, sp, #4
    2426:	4620      	mov	r0, r4
    2428:	4629      	mov	r1, r5
    242a:	beab      	bkpt	0x00ab
    242c:	4604      	mov	r4, r0
    242e:	1c63      	adds	r3, r4, #1
    2430:	d002      	beq.n	2438 <_swiread+0x20>
    2432:	4620      	mov	r0, r4
    2434:	b005      	add	sp, #20
    2436:	bd30      	pop	{r4, r5, pc}
    2438:	f7ff ffe0 	bl	23fc <checkerror.part.0>
    243c:	b005      	add	sp, #20
    243e:	bd30      	pop	{r4, r5, pc}

00002440 <_read>:
    2440:	b5f0      	push	{r4, r5, r6, r7, lr}
    2442:	b085      	sub	sp, #20
    2444:	460f      	mov	r7, r1
    2446:	4615      	mov	r5, r2
    2448:	f7ff ffbe 	bl	23c8 <findslot>
    244c:	b1e0      	cbz	r0, 2488 <_read+0x48>
    244e:	6803      	ldr	r3, [r0, #0]
    2450:	4606      	mov	r6, r0
    2452:	e9cd 3701 	strd	r3, r7, [sp, #4]
    2456:	2406      	movs	r4, #6
    2458:	9503      	str	r5, [sp, #12]
    245a:	af01      	add	r7, sp, #4
    245c:	4620      	mov	r0, r4
    245e:	4639      	mov	r1, r7
    2460:	beab      	bkpt	0x00ab
    2462:	4604      	mov	r4, r0
    2464:	1c62      	adds	r2, r4, #1
    2466:	d007      	beq.n	2478 <_read+0x38>
    2468:	6872      	ldr	r2, [r6, #4]
    246a:	1b2d      	subs	r5, r5, r4
    246c:	462c      	mov	r4, r5
    246e:	4415      	add	r5, r2
    2470:	6075      	str	r5, [r6, #4]
    2472:	4620      	mov	r0, r4
    2474:	b005      	add	sp, #20
    2476:	bdf0      	pop	{r4, r5, r6, r7, pc}
    2478:	f7ff ffc0 	bl	23fc <checkerror.part.0>
    247c:	1c43      	adds	r3, r0, #1
    247e:	4604      	mov	r4, r0
    2480:	d1f2      	bne.n	2468 <_read+0x28>
    2482:	4620      	mov	r0, r4
    2484:	b005      	add	sp, #20
    2486:	bdf0      	pop	{r4, r5, r6, r7, pc}
    2488:	f000 fbde 	bl	2c48 <__errno>
    248c:	2209      	movs	r2, #9
    248e:	f04f 34ff 	mov.w	r4, #4294967295	; 0xffffffff
    2492:	6002      	str	r2, [r0, #0]
    2494:	e7ed      	b.n	2472 <_read+0x32>
    2496:	bf00      	nop

00002498 <_swilseek>:
    2498:	e92d 43f0 	stmdb	sp!, {r4, r5, r6, r7, r8, r9, lr}
    249c:	b083      	sub	sp, #12
    249e:	4689      	mov	r9, r1
    24a0:	4614      	mov	r4, r2
    24a2:	f7ff ff91 	bl	23c8 <findslot>
    24a6:	2800      	cmp	r0, #0
    24a8:	d041      	beq.n	252e <_swilseek+0x96>
    24aa:	2c02      	cmp	r4, #2
    24ac:	d838      	bhi.n	2520 <_swilseek+0x88>
    24ae:	2c01      	cmp	r4, #1
    24b0:	4606      	mov	r6, r0
    24b2:	d022      	beq.n	24fa <_swilseek+0x62>
    24b4:	2c02      	cmp	r4, #2
    24b6:	6803      	ldr	r3, [r0, #0]
    24b8:	d011      	beq.n	24de <_swilseek+0x46>
    24ba:	464d      	mov	r5, r9
    24bc:	46e8      	mov	r8, sp
    24be:	e9cd 3500 	strd	r3, r5, [sp]
    24c2:	240a      	movs	r4, #10
    24c4:	4620      	mov	r0, r4
    24c6:	4641      	mov	r1, r8
    24c8:	beab      	bkpt	0x00ab
    24ca:	4604      	mov	r4, r0
    24cc:	1c63      	adds	r3, r4, #1
    24ce:	d01b      	beq.n	2508 <_swilseek+0x70>
    24d0:	2c00      	cmp	r4, #0
    24d2:	db22      	blt.n	251a <_swilseek+0x82>
    24d4:	6075      	str	r5, [r6, #4]
    24d6:	4628      	mov	r0, r5
    24d8:	b003      	add	sp, #12
    24da:	e8bd 83f0 	ldmia.w	sp!, {r4, r5, r6, r7, r8, r9, pc}
    24de:	f10d 0808 	add.w	r8, sp, #8
    24e2:	270c      	movs	r7, #12
    24e4:	f848 3d08 	str.w	r3, [r8, #-8]!
    24e8:	4638      	mov	r0, r7
    24ea:	4641      	mov	r1, r8
    24ec:	beab      	bkpt	0x00ab
    24ee:	4605      	mov	r5, r0
    24f0:	1c69      	adds	r1, r5, #1
    24f2:	d00d      	beq.n	2510 <_swilseek+0x78>
    24f4:	444d      	add	r5, r9
    24f6:	6833      	ldr	r3, [r6, #0]
    24f8:	e7e1      	b.n	24be <_swilseek+0x26>
    24fa:	6845      	ldr	r5, [r0, #4]
    24fc:	eb19 0505 	adds.w	r5, r9, r5
    2500:	d40e      	bmi.n	2520 <_swilseek+0x88>
    2502:	6803      	ldr	r3, [r0, #0]
    2504:	46e8      	mov	r8, sp
    2506:	e7da      	b.n	24be <_swilseek+0x26>
    2508:	f7ff ff78 	bl	23fc <checkerror.part.0>
    250c:	4604      	mov	r4, r0
    250e:	e7df      	b.n	24d0 <_swilseek+0x38>
    2510:	f7ff ff74 	bl	23fc <checkerror.part.0>
    2514:	1c42      	adds	r2, r0, #1
    2516:	4605      	mov	r5, r0
    2518:	d1ec      	bne.n	24f4 <_swilseek+0x5c>
    251a:	f04f 35ff 	mov.w	r5, #4294967295	; 0xffffffff
    251e:	e7da      	b.n	24d6 <_swilseek+0x3e>
    2520:	f000 fb92 	bl	2c48 <__errno>
    2524:	2316      	movs	r3, #22
    2526:	f04f 35ff 	mov.w	r5, #4294967295	; 0xffffffff
    252a:	6003      	str	r3, [r0, #0]
    252c:	e7d3      	b.n	24d6 <_swilseek+0x3e>
    252e:	f000 fb8b 	bl	2c48 <__errno>
    2532:	2309      	movs	r3, #9
    2534:	f04f 35ff 	mov.w	r5, #4294967295	; 0xffffffff
    2538:	6003      	str	r3, [r0, #0]
    253a:	e7cc      	b.n	24d6 <_swilseek+0x3e>

0000253c <_lseek>:
    253c:	f7ff bfac 	b.w	2498 <_swilseek>

00002540 <_swiwrite>:
    2540:	b530      	push	{r4, r5, lr}
    2542:	b085      	sub	sp, #20
    2544:	e9cd 0101 	strd	r0, r1, [sp, #4]
    2548:	9203      	str	r2, [sp, #12]
    254a:	2405      	movs	r4, #5
    254c:	ad01      	add	r5, sp, #4
    254e:	4620      	mov	r0, r4
    2550:	4629      	mov	r1, r5
    2552:	beab      	bkpt	0x00ab
    2554:	4604      	mov	r4, r0
    2556:	1c63      	adds	r3, r4, #1
    2558:	d002      	beq.n	2560 <_swiwrite+0x20>
    255a:	4620      	mov	r0, r4
    255c:	b005      	add	sp, #20
    255e:	bd30      	pop	{r4, r5, pc}
    2560:	f7ff ff4c 	bl	23fc <checkerror.part.0>
    2564:	b005      	add	sp, #20
    2566:	bd30      	pop	{r4, r5, pc}

00002568 <_write>:
    2568:	b5f0      	push	{r4, r5, r6, r7, lr}
    256a:	b085      	sub	sp, #20
    256c:	460f      	mov	r7, r1
    256e:	4616      	mov	r6, r2
    2570:	f7ff ff2a 	bl	23c8 <findslot>
    2574:	b360      	cbz	r0, 25d0 <_write+0x68>
    2576:	6803      	ldr	r3, [r0, #0]
    2578:	4605      	mov	r5, r0
    257a:	e9cd 3701 	strd	r3, r7, [sp, #4]
    257e:	2405      	movs	r4, #5
    2580:	9603      	str	r6, [sp, #12]
    2582:	af01      	add	r7, sp, #4
    2584:	4620      	mov	r0, r4
    2586:	4639      	mov	r1, r7
    2588:	beab      	bkpt	0x00ab
    258a:	4604      	mov	r4, r0
    258c:	1c63      	adds	r3, r4, #1
    258e:	d00a      	beq.n	25a6 <_write+0x3e>
    2590:	2c00      	cmp	r4, #0
    2592:	db1a      	blt.n	25ca <_write+0x62>
    2594:	686a      	ldr	r2, [r5, #4]
    2596:	1b33      	subs	r3, r6, r4
    2598:	441a      	add	r2, r3
    259a:	42b4      	cmp	r4, r6
    259c:	606a      	str	r2, [r5, #4]
    259e:	d006      	beq.n	25ae <_write+0x46>
    25a0:	4618      	mov	r0, r3
    25a2:	b005      	add	sp, #20
    25a4:	bdf0      	pop	{r4, r5, r6, r7, pc}
    25a6:	f7ff ff29 	bl	23fc <checkerror.part.0>
    25aa:	4604      	mov	r4, r0
    25ac:	e7f0      	b.n	2590 <_write+0x28>
    25ae:	f000 fb4b 	bl	2c48 <__errno>
    25b2:	2513      	movs	r5, #19
    25b4:	4606      	mov	r6, r0
    25b6:	2400      	movs	r4, #0
    25b8:	4628      	mov	r0, r5
    25ba:	4621      	mov	r1, r4
    25bc:	beab      	bkpt	0x00ab
    25be:	4605      	mov	r5, r0
    25c0:	4623      	mov	r3, r4
    25c2:	4618      	mov	r0, r3
    25c4:	6035      	str	r5, [r6, #0]
    25c6:	b005      	add	sp, #20
    25c8:	bdf0      	pop	{r4, r5, r6, r7, pc}
    25ca:	f04f 33ff 	mov.w	r3, #4294967295	; 0xffffffff
    25ce:	e7e7      	b.n	25a0 <_write+0x38>
    25d0:	f000 fb3a 	bl	2c48 <__errno>
    25d4:	2209      	movs	r2, #9
    25d6:	f04f 33ff 	mov.w	r3, #4294967295	; 0xffffffff
    25da:	6002      	str	r2, [r0, #0]
    25dc:	e7e0      	b.n	25a0 <_write+0x38>
    25de:	bf00      	nop

000025e0 <_swiclose>:
    25e0:	b530      	push	{r4, r5, lr}
    25e2:	b083      	sub	sp, #12
    25e4:	ad02      	add	r5, sp, #8
    25e6:	2402      	movs	r4, #2
    25e8:	f845 0d04 	str.w	r0, [r5, #-4]!
    25ec:	4620      	mov	r0, r4
    25ee:	4629      	mov	r1, r5
    25f0:	beab      	bkpt	0x00ab
    25f2:	4604      	mov	r4, r0
    25f4:	1c63      	adds	r3, r4, #1
    25f6:	d002      	beq.n	25fe <_swiclose+0x1e>
    25f8:	4620      	mov	r0, r4
    25fa:	b003      	add	sp, #12
    25fc:	bd30      	pop	{r4, r5, pc}
    25fe:	f7ff fefd 	bl	23fc <checkerror.part.0>
    2602:	b003      	add	sp, #12
    2604:	bd30      	pop	{r4, r5, pc}
    2606:	bf00      	nop

00002608 <_close>:
    2608:	b570      	push	{r4, r5, r6, lr}
    260a:	b082      	sub	sp, #8
    260c:	4604      	mov	r4, r0
    260e:	f7ff fedb 	bl	23c8 <findslot>
    2612:	b338      	cbz	r0, 2664 <_close+0x5c>
    2614:	3c01      	subs	r4, #1
    2616:	2c01      	cmp	r4, #1
    2618:	4606      	mov	r6, r0
    261a:	d911      	bls.n	2640 <_close+0x38>
    261c:	6833      	ldr	r3, [r6, #0]
    261e:	ad02      	add	r5, sp, #8
    2620:	2402      	movs	r4, #2
    2622:	f845 3d04 	str.w	r3, [r5, #-4]!
    2626:	4620      	mov	r0, r4
    2628:	4629      	mov	r1, r5
    262a:	beab      	bkpt	0x00ab
    262c:	4604      	mov	r4, r0
    262e:	1c63      	adds	r3, r4, #1
    2630:	d012      	beq.n	2658 <_close+0x50>
    2632:	b914      	cbnz	r4, 263a <_close+0x32>
    2634:	f04f 32ff 	mov.w	r2, #4294967295	; 0xffffffff
    2638:	6032      	str	r2, [r6, #0]
    263a:	4620      	mov	r0, r4
    263c:	b002      	add	sp, #8
    263e:	bd70      	pop	{r4, r5, r6, pc}
    2640:	4b0c      	ldr	r3, [pc, #48]	; (2674 <_close+0x6c>)
    2642:	689a      	ldr	r2, [r3, #8]
    2644:	691b      	ldr	r3, [r3, #16]
    2646:	429a      	cmp	r2, r3
    2648:	d1e8      	bne.n	261c <_close+0x14>
    264a:	f04f 32ff 	mov.w	r2, #4294967295	; 0xffffffff
    264e:	2400      	movs	r4, #0
    2650:	6002      	str	r2, [r0, #0]
    2652:	4620      	mov	r0, r4
    2654:	b002      	add	sp, #8
    2656:	bd70      	pop	{r4, r5, r6, pc}
    2658:	f7ff fed0 	bl	23fc <checkerror.part.0>
    265c:	4604      	mov	r4, r0
    265e:	2c00      	cmp	r4, #0
    2660:	d0e8      	beq.n	2634 <_close+0x2c>
    2662:	e7ea      	b.n	263a <_close+0x32>
    2664:	f000 faf0 	bl	2c48 <__errno>
    2668:	2209      	movs	r2, #9
    266a:	f04f 34ff 	mov.w	r4, #4294967295	; 0xffffffff
    266e:	6002      	str	r2, [r0, #0]
    2670:	e7e3      	b.n	263a <_close+0x32>
    2672:	bf00      	nop
    2674:	2000007c 	andcs	r0, r0, ip, ror r0

00002678 <_getpid>:
    2678:	2001      	movs	r0, #1
    267a:	4770      	bx	lr

0000267c <_sbrk>:
    267c:	4a10      	ldr	r2, [pc, #64]	; (26c0 <_sbrk+0x44>)
    267e:	b510      	push	{r4, lr}
    2680:	f8d2 30a0 	ldr.w	r3, [r2, #160]	; 0xa0
    2684:	b1b3      	cbz	r3, 26b4 <_sbrk+0x38>
    2686:	4669      	mov	r1, sp
    2688:	4418      	add	r0, r3
    268a:	4288      	cmp	r0, r1
    268c:	d80a      	bhi.n	26a4 <_sbrk+0x28>
    268e:	490d      	ldr	r1, [pc, #52]	; (26c4 <_sbrk+0x48>)
    2690:	4c0d      	ldr	r4, [pc, #52]	; (26c8 <_sbrk+0x4c>)
    2692:	6809      	ldr	r1, [r1, #0]
    2694:	42a1      	cmp	r1, r4
    2696:	d001      	beq.n	269c <_sbrk+0x20>
    2698:	4288      	cmp	r0, r1
    269a:	d803      	bhi.n	26a4 <_sbrk+0x28>
    269c:	f8c2 00a0 	str.w	r0, [r2, #160]	; 0xa0
    26a0:	4618      	mov	r0, r3
    26a2:	bd10      	pop	{r4, pc}
    26a4:	f000 fad0 	bl	2c48 <__errno>
    26a8:	220c      	movs	r2, #12
    26aa:	f04f 33ff 	mov.w	r3, #4294967295	; 0xffffffff
    26ae:	6002      	str	r2, [r0, #0]
    26b0:	4618      	mov	r0, r3
    26b2:	bd10      	pop	{r4, pc}
    26b4:	4905      	ldr	r1, [pc, #20]	; (26cc <_sbrk+0x50>)
    26b6:	460b      	mov	r3, r1
    26b8:	f8c2 10a0 	str.w	r1, [r2, #160]	; 0xa0
    26bc:	e7e3      	b.n	2686 <_sbrk+0xa>
    26be:	bf00      	nop
    26c0:	2000007c 	andcs	r0, r0, ip, ror r0
    26c4:	20000064 	andcs	r0, r0, r4, rrx
    26c8:	cafedead 	bgt	fffba184 <__StackTop+0xdffaa184>
    26cc:	20000130 	andcs	r0, r0, r0, lsr r1

000026d0 <_swistat>:
    26d0:	b570      	push	{r4, r5, r6, lr}
    26d2:	460d      	mov	r5, r1
    26d4:	f7ff fe78 	bl	23c8 <findslot>
    26d8:	b1c0      	cbz	r0, 270c <_swistat+0x3c>
    26da:	f44f 6280 	mov.w	r2, #1024	; 0x400
    26de:	686b      	ldr	r3, [r5, #4]
    26e0:	4606      	mov	r6, r0
    26e2:	f443 5300 	orr.w	r3, r3, #8192	; 0x2000
    26e6:	646a      	str	r2, [r5, #68]	; 0x44
    26e8:	606b      	str	r3, [r5, #4]
    26ea:	240c      	movs	r4, #12
    26ec:	4620      	mov	r0, r4
    26ee:	4631      	mov	r1, r6
    26f0:	beab      	bkpt	0x00ab
    26f2:	4604      	mov	r4, r0
    26f4:	1c62      	adds	r2, r4, #1
    26f6:	d003      	beq.n	2700 <_swistat+0x30>
    26f8:	612c      	str	r4, [r5, #16]
    26fa:	2400      	movs	r4, #0
    26fc:	4620      	mov	r0, r4
    26fe:	bd70      	pop	{r4, r5, r6, pc}
    2700:	f7ff fe7c 	bl	23fc <checkerror.part.0>
    2704:	1c43      	adds	r3, r0, #1
    2706:	4604      	mov	r4, r0
    2708:	d1f6      	bne.n	26f8 <_swistat+0x28>
    270a:	e7f7      	b.n	26fc <_swistat+0x2c>
    270c:	f000 fa9c 	bl	2c48 <__errno>
    2710:	2209      	movs	r2, #9
    2712:	f04f 34ff 	mov.w	r4, #4294967295	; 0xffffffff
    2716:	6002      	str	r2, [r0, #0]
    2718:	e7f0      	b.n	26fc <_swistat+0x2c>
    271a:	bf00      	nop

0000271c <_fstat>:
    271c:	b510      	push	{r4, lr}
    271e:	2258      	movs	r2, #88	; 0x58
    2720:	4604      	mov	r4, r0
    2722:	4608      	mov	r0, r1
    2724:	2100      	movs	r1, #0
    2726:	f7fe ff71 	bl	160c <memset>
    272a:	4601      	mov	r1, r0
    272c:	4620      	mov	r0, r4
    272e:	e8bd 4010 	ldmia.w	sp!, {r4, lr}
    2732:	f7ff bfcd 	b.w	26d0 <_swistat>
    2736:	bf00      	nop

00002738 <_stat>:
    2738:	b538      	push	{r3, r4, r5, lr}
    273a:	4605      	mov	r5, r0
    273c:	2258      	movs	r2, #88	; 0x58
    273e:	4608      	mov	r0, r1
    2740:	460c      	mov	r4, r1
    2742:	2100      	movs	r1, #0
    2744:	f7fe ff62 	bl	160c <memset>
    2748:	4628      	mov	r0, r5
    274a:	2100      	movs	r1, #0
    274c:	f000 f812 	bl	2774 <_swiopen>
    2750:	1c43      	adds	r3, r0, #1
    2752:	4605      	mov	r5, r0
    2754:	d00c      	beq.n	2770 <_stat+0x38>
    2756:	6863      	ldr	r3, [r4, #4]
    2758:	4621      	mov	r1, r4
    275a:	f443 4301 	orr.w	r3, r3, #33024	; 0x8100
    275e:	6063      	str	r3, [r4, #4]
    2760:	f7ff ffb6 	bl	26d0 <_swistat>
    2764:	4604      	mov	r4, r0
    2766:	4628      	mov	r0, r5
    2768:	f7ff ff4e 	bl	2608 <_close>
    276c:	4620      	mov	r0, r4
    276e:	bd38      	pop	{r3, r4, r5, pc}
    2770:	4604      	mov	r4, r0
    2772:	e7fb      	b.n	276c <_stat+0x34>

00002774 <_swiopen>:
    2774:	e92d 47f0 	stmdb	sp!, {r4, r5, r6, r7, r8, r9, sl, lr}
    2778:	4682      	mov	sl, r0
    277a:	b096      	sub	sp, #88	; 0x58
    277c:	4688      	mov	r8, r1
    277e:	2400      	movs	r4, #0
    2780:	4e30      	ldr	r6, [pc, #192]	; (2844 <_swiopen+0xd0>)
    2782:	e002      	b.n	278a <_swiopen+0x16>
    2784:	3401      	adds	r4, #1
    2786:	2c14      	cmp	r4, #20
    2788:	d037      	beq.n	27fa <_swiopen+0x86>
    278a:	f856 5034 	ldr.w	r5, [r6, r4, lsl #3]
    278e:	00e7      	lsls	r7, r4, #3
    2790:	1c6b      	adds	r3, r5, #1
    2792:	d1f7      	bne.n	2784 <_swiopen+0x10>
    2794:	f408 6320 	and.w	r3, r8, #2560	; 0xa00
    2798:	f5b3 6f20 	cmp.w	r3, #2560	; 0xa00
    279c:	46e9      	mov	r9, sp
    279e:	d045      	beq.n	282c <_swiopen+0xb8>
    27a0:	f240 6301 	movw	r3, #1537	; 0x601
    27a4:	f3c8 4500 	ubfx	r5, r8, #16, #1
    27a8:	f018 0f02 	tst.w	r8, #2
    27ac:	bf18      	it	ne
    27ae:	f045 0502 	orrne.w	r5, r5, #2
    27b2:	ea18 0f03 	tst.w	r8, r3
    27b6:	bf18      	it	ne
    27b8:	f045 0504 	orrne.w	r5, r5, #4
    27bc:	f018 0f08 	tst.w	r8, #8
    27c0:	bf18      	it	ne
    27c2:	f025 0504 	bicne.w	r5, r5, #4
    27c6:	4650      	mov	r0, sl
    27c8:	bf18      	it	ne
    27ca:	f045 0508 	orrne.w	r5, r5, #8
    27ce:	f8cd a000 	str.w	sl, [sp]
    27d2:	f000 fbd9 	bl	2f88 <strlen>
    27d6:	e9cd 5001 	strd	r5, r0, [sp, #4]
    27da:	2501      	movs	r5, #1
    27dc:	4628      	mov	r0, r5
    27de:	4649      	mov	r1, r9
    27e0:	beab      	bkpt	0x00ab
    27e2:	4605      	mov	r5, r0
    27e4:	2d00      	cmp	r5, #0
    27e6:	db12      	blt.n	280e <_swiopen+0x9a>
    27e8:	2300      	movs	r3, #0
    27ea:	4437      	add	r7, r6
    27ec:	f846 5034 	str.w	r5, [r6, r4, lsl #3]
    27f0:	607b      	str	r3, [r7, #4]
    27f2:	4620      	mov	r0, r4
    27f4:	b016      	add	sp, #88	; 0x58
    27f6:	e8bd 87f0 	ldmia.w	sp!, {r4, r5, r6, r7, r8, r9, sl, pc}
    27fa:	f000 fa25 	bl	2c48 <__errno>
    27fe:	f04f 34ff 	mov.w	r4, #4294967295	; 0xffffffff
    2802:	2318      	movs	r3, #24
    2804:	6003      	str	r3, [r0, #0]
    2806:	4620      	mov	r0, r4
    2808:	b016      	add	sp, #88	; 0x58
    280a:	e8bd 87f0 	ldmia.w	sp!, {r4, r5, r6, r7, r8, r9, sl, pc}
    280e:	f000 fa1b 	bl	2c48 <__errno>
    2812:	2413      	movs	r4, #19
    2814:	4606      	mov	r6, r0
    2816:	2700      	movs	r7, #0
    2818:	4620      	mov	r0, r4
    281a:	4639      	mov	r1, r7
    281c:	beab      	bkpt	0x00ab
    281e:	4604      	mov	r4, r0
    2820:	6034      	str	r4, [r6, #0]
    2822:	462c      	mov	r4, r5
    2824:	4620      	mov	r0, r4
    2826:	b016      	add	sp, #88	; 0x58
    2828:	e8bd 87f0 	ldmia.w	sp!, {r4, r5, r6, r7, r8, r9, sl, pc}
    282c:	4649      	mov	r1, r9
    282e:	4650      	mov	r0, sl
    2830:	f7ff ff82 	bl	2738 <_stat>
    2834:	3001      	adds	r0, #1
    2836:	d0b3      	beq.n	27a0 <_swiopen+0x2c>
    2838:	f000 fa06 	bl	2c48 <__errno>
    283c:	2311      	movs	r3, #17
    283e:	462c      	mov	r4, r5
    2840:	6003      	str	r3, [r0, #0]
    2842:	e7d6      	b.n	27f2 <_swiopen+0x7e>
    2844:	2000007c 	andcs	r0, r0, ip, ror r0

00002848 <_open>:
    2848:	b40e      	push	{r1, r2, r3}
    284a:	b500      	push	{lr}
    284c:	9901      	ldr	r1, [sp, #4]
    284e:	f7ff ff91 	bl	2774 <_swiopen>
    2852:	f85d eb04 	ldr.w	lr, [sp], #4
    2856:	b003      	add	sp, #12
    2858:	4770      	bx	lr
    285a:	bf00      	nop

0000285c <_get_semihosting_exts>:
    285c:	e92d 43f0 	stmdb	sp!, {r4, r5, r6, r7, r8, r9, lr}
    2860:	4607      	mov	r7, r0
    2862:	b083      	sub	sp, #12
    2864:	4688      	mov	r8, r1
    2866:	4830      	ldr	r0, [pc, #192]	; (2928 <_get_semihosting_exts+0xcc>)
    2868:	2100      	movs	r1, #0
    286a:	4616      	mov	r6, r2
    286c:	f7ff ff82 	bl	2774 <_swiopen>
    2870:	4605      	mov	r5, r0
    2872:	2100      	movs	r1, #0
    2874:	4632      	mov	r2, r6
    2876:	4638      	mov	r0, r7
    2878:	f7fe fec8 	bl	160c <memset>
    287c:	1c69      	adds	r1, r5, #1
    287e:	d051      	beq.n	2924 <_get_semihosting_exts+0xc8>
    2880:	4628      	mov	r0, r5
    2882:	f7ff fda1 	bl	23c8 <findslot>
    2886:	240c      	movs	r4, #12
    2888:	4681      	mov	r9, r0
    288a:	4620      	mov	r0, r4
    288c:	4649      	mov	r1, r9
    288e:	beab      	bkpt	0x00ab
    2890:	4604      	mov	r4, r0
    2892:	1c62      	adds	r2, r4, #1
    2894:	d03b      	beq.n	290e <_get_semihosting_exts+0xb2>
    2896:	2c03      	cmp	r4, #3
    2898:	dd30      	ble.n	28fc <_get_semihosting_exts+0xa0>
    289a:	1ee0      	subs	r0, r4, #3
    289c:	42b0      	cmp	r0, r6
    289e:	dd2d      	ble.n	28fc <_get_semihosting_exts+0xa0>
    28a0:	2204      	movs	r2, #4
    28a2:	4628      	mov	r0, r5
    28a4:	eb0d 0102 	add.w	r1, sp, r2
    28a8:	f7ff fdca 	bl	2440 <_read>
    28ac:	2803      	cmp	r0, #3
    28ae:	dd25      	ble.n	28fc <_get_semihosting_exts+0xa0>
    28b0:	f89d 3004 	ldrb.w	r3, [sp, #4]
    28b4:	2b53      	cmp	r3, #83	; 0x53
    28b6:	d121      	bne.n	28fc <_get_semihosting_exts+0xa0>
    28b8:	f89d 3005 	ldrb.w	r3, [sp, #5]
    28bc:	2b48      	cmp	r3, #72	; 0x48
    28be:	d11d      	bne.n	28fc <_get_semihosting_exts+0xa0>
    28c0:	f89d 3006 	ldrb.w	r3, [sp, #6]
    28c4:	2b46      	cmp	r3, #70	; 0x46
    28c6:	d119      	bne.n	28fc <_get_semihosting_exts+0xa0>
    28c8:	f89d 3007 	ldrb.w	r3, [sp, #7]
    28cc:	2b42      	cmp	r3, #66	; 0x42
    28ce:	d115      	bne.n	28fc <_get_semihosting_exts+0xa0>
    28d0:	4641      	mov	r1, r8
    28d2:	2201      	movs	r2, #1
    28d4:	4628      	mov	r0, r5
    28d6:	f7ff fddf 	bl	2498 <_swilseek>
    28da:	2800      	cmp	r0, #0
    28dc:	db0e      	blt.n	28fc <_get_semihosting_exts+0xa0>
    28de:	4632      	mov	r2, r6
    28e0:	4639      	mov	r1, r7
    28e2:	4628      	mov	r0, r5
    28e4:	f7ff fdac 	bl	2440 <_read>
    28e8:	4604      	mov	r4, r0
    28ea:	4628      	mov	r0, r5
    28ec:	f7ff fe8c 	bl	2608 <_close>
    28f0:	1c63      	adds	r3, r4, #1
    28f2:	d010      	beq.n	2916 <_get_semihosting_exts+0xba>
    28f4:	4620      	mov	r0, r4
    28f6:	b003      	add	sp, #12
    28f8:	e8bd 83f0 	ldmia.w	sp!, {r4, r5, r6, r7, r8, r9, pc}
    28fc:	f04f 34ff 	mov.w	r4, #4294967295	; 0xffffffff
    2900:	4628      	mov	r0, r5
    2902:	f7ff fe81 	bl	2608 <_close>
    2906:	4620      	mov	r0, r4
    2908:	b003      	add	sp, #12
    290a:	e8bd 83f0 	ldmia.w	sp!, {r4, r5, r6, r7, r8, r9, pc}
    290e:	f7ff fd75 	bl	23fc <checkerror.part.0>
    2912:	4604      	mov	r4, r0
    2914:	e7bf      	b.n	2896 <_get_semihosting_exts+0x3a>
    2916:	f7ff fd71 	bl	23fc <checkerror.part.0>
    291a:	4604      	mov	r4, r0
    291c:	4620      	mov	r0, r4
    291e:	b003      	add	sp, #12
    2920:	e8bd 83f0 	ldmia.w	sp!, {r4, r5, r6, r7, r8, r9, pc}
    2924:	462c      	mov	r4, r5
    2926:	e7e5      	b.n	28f4 <_get_semihosting_exts+0x98>
    2928:	000032b4 			; <UNDEFINED> instruction: 0x000032b4

0000292c <initialise_semihosting_exts>:
    292c:	b530      	push	{r4, r5, lr}
    292e:	2301      	movs	r3, #1
    2930:	2500      	movs	r5, #0
    2932:	b083      	sub	sp, #12
    2934:	4c09      	ldr	r4, [pc, #36]	; (295c <initialise_semihosting_exts+0x30>)
    2936:	4629      	mov	r1, r5
    2938:	461a      	mov	r2, r3
    293a:	a801      	add	r0, sp, #4
    293c:	e9c4 5301 	strd	r5, r3, [r4, #4]
    2940:	f7ff ff8c 	bl	285c <_get_semihosting_exts>
    2944:	42a8      	cmp	r0, r5
    2946:	dd07      	ble.n	2958 <initialise_semihosting_exts+0x2c>
    2948:	f89d 3004 	ldrb.w	r3, [sp, #4]
    294c:	f003 0201 	and.w	r2, r3, #1
    2950:	f003 0302 	and.w	r3, r3, #2
    2954:	e9c4 2301 	strd	r2, r3, [r4, #4]
    2958:	b003      	add	sp, #12
    295a:	bd30      	pop	{r4, r5, pc}
    295c:	20000064 	andcs	r0, r0, r4, rrx

00002960 <_has_ext_exit_extended>:
    2960:	b510      	push	{r4, lr}
    2962:	4c04      	ldr	r4, [pc, #16]	; (2974 <_has_ext_exit_extended+0x14>)
    2964:	6860      	ldr	r0, [r4, #4]
    2966:	2800      	cmp	r0, #0
    2968:	db00      	blt.n	296c <_has_ext_exit_extended+0xc>
    296a:	bd10      	pop	{r4, pc}
    296c:	f7ff ffde 	bl	292c <initialise_semihosting_exts>
    2970:	6860      	ldr	r0, [r4, #4]
    2972:	bd10      	pop	{r4, pc}
    2974:	20000064 	andcs	r0, r0, r4, rrx

00002978 <_has_ext_stdout_stderr>:
    2978:	b510      	push	{r4, lr}
    297a:	4c04      	ldr	r4, [pc, #16]	; (298c <_has_ext_stdout_stderr+0x14>)
    297c:	68a0      	ldr	r0, [r4, #8]
    297e:	2800      	cmp	r0, #0
    2980:	db00      	blt.n	2984 <_has_ext_stdout_stderr+0xc>
    2982:	bd10      	pop	{r4, pc}
    2984:	f7ff ffd2 	bl	292c <initialise_semihosting_exts>
    2988:	68a0      	ldr	r0, [r4, #8]
    298a:	bd10      	pop	{r4, pc}
    298c:	20000064 	andcs	r0, r0, r4, rrx

00002990 <initialise_monitor_handles>:
    2990:	e92d 47f0 	stmdb	sp!, {r4, r5, r6, r7, r8, r9, sl, lr}
    2994:	2303      	movs	r3, #3
    2996:	2400      	movs	r4, #0
    2998:	4f36      	ldr	r7, [pc, #216]	; (2a74 <initialise_monitor_handles+0xe4>)
    299a:	b084      	sub	sp, #16
    299c:	9701      	str	r7, [sp, #4]
    299e:	2501      	movs	r5, #1
    29a0:	9303      	str	r3, [sp, #12]
    29a2:	ae01      	add	r6, sp, #4
    29a4:	9402      	str	r4, [sp, #8]
    29a6:	4628      	mov	r0, r5
    29a8:	4631      	mov	r1, r6
    29aa:	beab      	bkpt	0x00ab
    29ac:	4605      	mov	r5, r0
    29ae:	f04f 32ff 	mov.w	r2, #4294967295	; 0xffffffff
    29b2:	4623      	mov	r3, r4
    29b4:	4c30      	ldr	r4, [pc, #192]	; (2a78 <initialise_monitor_handles+0xe8>)
    29b6:	f8c4 50a4 	str.w	r5, [r4, #164]	; 0xa4
    29ba:	f844 2033 	str.w	r2, [r4, r3, lsl #3]
    29be:	3301      	adds	r3, #1
    29c0:	2b14      	cmp	r3, #20
    29c2:	d1fa      	bne.n	29ba <initialise_monitor_handles+0x2a>
    29c4:	f8df 80b4 	ldr.w	r8, [pc, #180]	; 2a7c <initialise_monitor_handles+0xec>
    29c8:	f8d8 3008 	ldr.w	r3, [r8, #8]
    29cc:	2b00      	cmp	r3, #0
    29ce:	db3a      	blt.n	2a46 <initialise_monitor_handles+0xb6>
    29d0:	b953      	cbnz	r3, 29e8 <initialise_monitor_handles+0x58>
    29d2:	f8d4 20a8 	ldr.w	r2, [r4, #168]	; 0xa8
    29d6:	3201      	adds	r2, #1
    29d8:	d03f      	beq.n	2a5a <initialise_monitor_handles+0xca>
    29da:	f8d4 20a4 	ldr.w	r2, [r4, #164]	; 0xa4
    29de:	e9c4 2300 	strd	r2, r3, [r4]
    29e2:	b004      	add	sp, #16
    29e4:	e8bd 87f0 	ldmia.w	sp!, {r4, r5, r6, r7, r8, r9, sl, pc}
    29e8:	f04f 0903 	mov.w	r9, #3
    29ec:	2304      	movs	r3, #4
    29ee:	9701      	str	r7, [sp, #4]
    29f0:	2501      	movs	r5, #1
    29f2:	f8cd 900c 	str.w	r9, [sp, #12]
    29f6:	9302      	str	r3, [sp, #8]
    29f8:	4628      	mov	r0, r5
    29fa:	4631      	mov	r1, r6
    29fc:	beab      	bkpt	0x00ab
    29fe:	4682      	mov	sl, r0
    2a00:	2308      	movs	r3, #8
    2a02:	9701      	str	r7, [sp, #4]
    2a04:	f8c4 a0ac 	str.w	sl, [r4, #172]	; 0xac
    2a08:	f8cd 900c 	str.w	r9, [sp, #12]
    2a0c:	9302      	str	r3, [sp, #8]
    2a0e:	4628      	mov	r0, r5
    2a10:	4631      	mov	r1, r6
    2a12:	beab      	bkpt	0x00ab
    2a14:	4606      	mov	r6, r0
    2a16:	f8c4 60a8 	str.w	r6, [r4, #168]	; 0xa8
    2a1a:	3601      	adds	r6, #1
    2a1c:	f8d8 3008 	ldr.w	r3, [r8, #8]
    2a20:	d01b      	beq.n	2a5a <initialise_monitor_handles+0xca>
    2a22:	2100      	movs	r1, #0
    2a24:	f8d4 20a4 	ldr.w	r2, [r4, #164]	; 0xa4
    2a28:	428b      	cmp	r3, r1
    2a2a:	e9c4 2100 	strd	r2, r1, [r4]
    2a2e:	db0f      	blt.n	2a50 <initialise_monitor_handles+0xc0>
    2a30:	b133      	cbz	r3, 2a40 <initialise_monitor_handles+0xb0>
    2a32:	e9d4 212a 	ldrd	r2, r1, [r4, #168]	; 0xa8
    2a36:	2300      	movs	r3, #0
    2a38:	60a1      	str	r1, [r4, #8]
    2a3a:	60e3      	str	r3, [r4, #12]
    2a3c:	6163      	str	r3, [r4, #20]
    2a3e:	6122      	str	r2, [r4, #16]
    2a40:	b004      	add	sp, #16
    2a42:	e8bd 87f0 	ldmia.w	sp!, {r4, r5, r6, r7, r8, r9, sl, pc}
    2a46:	f7ff ff71 	bl	292c <initialise_semihosting_exts>
    2a4a:	f8d8 3008 	ldr.w	r3, [r8, #8]
    2a4e:	e7bf      	b.n	29d0 <initialise_monitor_handles+0x40>
    2a50:	f7ff ff6c 	bl	292c <initialise_semihosting_exts>
    2a54:	f8d8 3008 	ldr.w	r3, [r8, #8]
    2a58:	e7ea      	b.n	2a30 <initialise_monitor_handles+0xa0>
    2a5a:	2100      	movs	r1, #0
    2a5c:	f8d4 20ac 	ldr.w	r2, [r4, #172]	; 0xac
    2a60:	428b      	cmp	r3, r1
    2a62:	f8c4 20a8 	str.w	r2, [r4, #168]	; 0xa8
    2a66:	f8d4 20a4 	ldr.w	r2, [r4, #164]	; 0xa4
    2a6a:	e9c4 2100 	strd	r2, r1, [r4]
    2a6e:	dadf      	bge.n	2a30 <initialise_monitor_handles+0xa0>
    2a70:	e7ee      	b.n	2a50 <initialise_monitor_handles+0xc0>
    2a72:	bf00      	nop
    2a74:	000032cc 	andeq	r3, r0, ip, asr #5
    2a78:	2000007c 	andcs	r0, r0, ip, ror r0
    2a7c:	20000064 	andcs	r0, r0, r4, rrx

00002a80 <_link>:
    2a80:	b508      	push	{r3, lr}
    2a82:	f000 f8e1 	bl	2c48 <__errno>
    2a86:	2358      	movs	r3, #88	; 0x58
    2a88:	6003      	str	r3, [r0, #0]
    2a8a:	f04f 30ff 	mov.w	r0, #4294967295	; 0xffffffff
    2a8e:	bd08      	pop	{r3, pc}

00002a90 <_unlink>:
    2a90:	b5f0      	push	{r4, r5, r6, r7, lr}
    2a92:	b083      	sub	sp, #12
    2a94:	9000      	str	r0, [sp, #0]
    2a96:	f000 fa77 	bl	2f88 <strlen>
    2a9a:	240e      	movs	r4, #14
    2a9c:	9001      	str	r0, [sp, #4]
    2a9e:	466d      	mov	r5, sp
    2aa0:	4620      	mov	r0, r4
    2aa2:	4629      	mov	r1, r5
    2aa4:	beab      	bkpt	0x00ab
    2aa6:	4604      	mov	r4, r0
    2aa8:	1c63      	adds	r3, r4, #1
    2aaa:	bf18      	it	ne
    2aac:	2400      	movne	r4, #0
    2aae:	d002      	beq.n	2ab6 <_unlink+0x26>
    2ab0:	4620      	mov	r0, r4
    2ab2:	b003      	add	sp, #12
    2ab4:	bdf0      	pop	{r4, r5, r6, r7, pc}
    2ab6:	f000 f8c7 	bl	2c48 <__errno>
    2aba:	2513      	movs	r5, #19
    2abc:	4606      	mov	r6, r0
    2abe:	2700      	movs	r7, #0
    2ac0:	4628      	mov	r0, r5
    2ac2:	4639      	mov	r1, r7
    2ac4:	beab      	bkpt	0x00ab
    2ac6:	4605      	mov	r5, r0
    2ac8:	6035      	str	r5, [r6, #0]
    2aca:	e7f1      	b.n	2ab0 <_unlink+0x20>

00002acc <_gettimeofday>:
    2acc:	b5f0      	push	{r4, r5, r6, r7, lr}
    2ace:	460d      	mov	r5, r1
    2ad0:	b158      	cbz	r0, 2aea <_gettimeofday+0x1e>
    2ad2:	4606      	mov	r6, r0
    2ad4:	2411      	movs	r4, #17
    2ad6:	2700      	movs	r7, #0
    2ad8:	4620      	mov	r0, r4
    2ada:	4639      	mov	r1, r7
    2adc:	beab      	bkpt	0x00ab
    2ade:	4604      	mov	r4, r0
    2ae0:	4622      	mov	r2, r4
    2ae2:	17e3      	asrs	r3, r4, #31
    2ae4:	e9c6 2300 	strd	r2, r3, [r6]
    2ae8:	60b7      	str	r7, [r6, #8]
    2aea:	b115      	cbz	r5, 2af2 <_gettimeofday+0x26>
    2aec:	2300      	movs	r3, #0
    2aee:	e9c5 3300 	strd	r3, r3, [r5]
    2af2:	2000      	movs	r0, #0
    2af4:	bdf0      	pop	{r4, r5, r6, r7, pc}
    2af6:	bf00      	nop

00002af8 <_clock>:
    2af8:	b530      	push	{r4, r5, lr}
    2afa:	2410      	movs	r4, #16
    2afc:	2500      	movs	r5, #0
    2afe:	4620      	mov	r0, r4
    2b00:	4629      	mov	r1, r5
    2b02:	beab      	bkpt	0x00ab
    2b04:	4604      	mov	r4, r0
    2b06:	4620      	mov	r0, r4
    2b08:	bd30      	pop	{r4, r5, pc}
    2b0a:	bf00      	nop

00002b0c <_times>:
    2b0c:	b570      	push	{r4, r5, r6, lr}
    2b0e:	4604      	mov	r4, r0
    2b10:	2510      	movs	r5, #16
    2b12:	2600      	movs	r6, #0
    2b14:	4628      	mov	r0, r5
    2b16:	4631      	mov	r1, r6
    2b18:	beab      	bkpt	0x00ab
    2b1a:	4605      	mov	r5, r0
    2b1c:	b11c      	cbz	r4, 2b26 <_times+0x1a>
    2b1e:	e9c4 5600 	strd	r5, r6, [r4]
    2b22:	e9c4 6602 	strd	r6, r6, [r4, #8]
    2b26:	4628      	mov	r0, r5
    2b28:	bd70      	pop	{r4, r5, r6, pc}
    2b2a:	bf00      	nop

00002b2c <_isatty>:
    2b2c:	b570      	push	{r4, r5, r6, lr}
    2b2e:	f7ff fc4b 	bl	23c8 <findslot>
    2b32:	4604      	mov	r4, r0
    2b34:	b190      	cbz	r0, 2b5c <_isatty+0x30>
    2b36:	2509      	movs	r5, #9
    2b38:	4628      	mov	r0, r5
    2b3a:	4621      	mov	r1, r4
    2b3c:	beab      	bkpt	0x00ab
    2b3e:	4604      	mov	r4, r0
    2b40:	2c01      	cmp	r4, #1
    2b42:	d009      	beq.n	2b58 <_isatty+0x2c>
    2b44:	f000 f880 	bl	2c48 <__errno>
    2b48:	2513      	movs	r5, #19
    2b4a:	4606      	mov	r6, r0
    2b4c:	2400      	movs	r4, #0
    2b4e:	4628      	mov	r0, r5
    2b50:	4621      	mov	r1, r4
    2b52:	beab      	bkpt	0x00ab
    2b54:	4605      	mov	r5, r0
    2b56:	6035      	str	r5, [r6, #0]
    2b58:	4620      	mov	r0, r4
    2b5a:	bd70      	pop	{r4, r5, r6, pc}
    2b5c:	f000 f874 	bl	2c48 <__errno>
    2b60:	2209      	movs	r2, #9
    2b62:	6002      	str	r2, [r0, #0]
    2b64:	4620      	mov	r0, r4
    2b66:	bd70      	pop	{r4, r5, r6, pc}

00002b68 <_system>:
    2b68:	b1d8      	cbz	r0, 2ba2 <_system+0x3a>
    2b6a:	b530      	push	{r4, r5, lr}
    2b6c:	b083      	sub	sp, #12
    2b6e:	9000      	str	r0, [sp, #0]
    2b70:	f000 fa0a 	bl	2f88 <strlen>
    2b74:	2412      	movs	r4, #18
    2b76:	9001      	str	r0, [sp, #4]
    2b78:	466d      	mov	r5, sp
    2b7a:	4620      	mov	r0, r4
    2b7c:	4629      	mov	r1, r5
    2b7e:	beab      	bkpt	0x00ab
    2b80:	4604      	mov	r4, r0
    2b82:	1c63      	adds	r3, r4, #1
    2b84:	4620      	mov	r0, r4
    2b86:	d00e      	beq.n	2ba6 <_system+0x3e>
    2b88:	28ff      	cmp	r0, #255	; 0xff
    2b8a:	d808      	bhi.n	2b9e <_system+0x36>
    2b8c:	b138      	cbz	r0, 2b9e <_system+0x36>
    2b8e:	4603      	mov	r3, r0
    2b90:	005b      	lsls	r3, r3, #1
    2b92:	f3c3 2207 	ubfx	r2, r3, #8, #8
    2b96:	d001      	beq.n	2b9c <_system+0x34>
    2b98:	4282      	cmp	r2, r0
    2b9a:	d1f9      	bne.n	2b90 <_system+0x28>
    2b9c:	4618      	mov	r0, r3
    2b9e:	b003      	add	sp, #12
    2ba0:	bd30      	pop	{r4, r5, pc}
    2ba2:	2001      	movs	r0, #1
    2ba4:	4770      	bx	lr
    2ba6:	f7ff fc29 	bl	23fc <checkerror.part.0>
    2baa:	e7ed      	b.n	2b88 <_system+0x20>

00002bac <_rename>:
    2bac:	b530      	push	{r4, r5, lr}
    2bae:	b085      	sub	sp, #20
    2bb0:	460c      	mov	r4, r1
    2bb2:	9000      	str	r0, [sp, #0]
    2bb4:	f000 f9e8 	bl	2f88 <strlen>
    2bb8:	9001      	str	r0, [sp, #4]
    2bba:	4620      	mov	r0, r4
    2bbc:	9402      	str	r4, [sp, #8]
    2bbe:	f000 f9e3 	bl	2f88 <strlen>
    2bc2:	240f      	movs	r4, #15
    2bc4:	9003      	str	r0, [sp, #12]
    2bc6:	466d      	mov	r5, sp
    2bc8:	4620      	mov	r0, r4
    2bca:	4629      	mov	r1, r5
    2bcc:	beab      	bkpt	0x00ab
    2bce:	4604      	mov	r4, r0
    2bd0:	1c63      	adds	r3, r4, #1
    2bd2:	d005      	beq.n	2be0 <_rename+0x34>
    2bd4:	1c20      	adds	r0, r4, #0
    2bd6:	bf18      	it	ne
    2bd8:	2001      	movne	r0, #1
    2bda:	4240      	negs	r0, r0
    2bdc:	b005      	add	sp, #20
    2bde:	bd30      	pop	{r4, r5, pc}
    2be0:	f7ff fc0c 	bl	23fc <checkerror.part.0>
    2be4:	4604      	mov	r4, r0
    2be6:	e7f5      	b.n	2bd4 <_rename+0x28>

00002be8 <_exit>:
    2be8:	4601      	mov	r1, r0
    2bea:	b508      	push	{r3, lr}
    2bec:	4a02      	ldr	r2, [pc, #8]	; (2bf8 <_exit+0x10>)
    2bee:	f04f 30ff 	mov.w	r0, #4294967295	; 0xffffffff
    2bf2:	f000 f803 	bl	2bfc <_kill_shared>
    2bf6:	bf00      	nop
    2bf8:	00020026 	andeq	r0, r2, r6, lsr #32

00002bfc <_kill_shared>:
    2bfc:	b500      	push	{lr}
    2bfe:	b083      	sub	sp, #12
    2c00:	e9cd 2100 	strd	r2, r1, [sp]
    2c04:	f7ff feac 	bl	2960 <_has_ext_exit_extended>
    2c08:	2800      	cmp	r0, #0
    2c0a:	bf14      	ite	ne
    2c0c:	2420      	movne	r4, #32
    2c0e:	2418      	moveq	r4, #24
    2c10:	f7ff fea6 	bl	2960 <_has_ext_exit_extended>
    2c14:	b120      	cbz	r0, 2c20 <_kill_shared+0x24>
    2c16:	466d      	mov	r5, sp
    2c18:	4620      	mov	r0, r4
    2c1a:	4629      	mov	r1, r5
    2c1c:	beab      	bkpt	0x00ab
    2c1e:	4604      	mov	r4, r0
    2c20:	9d00      	ldr	r5, [sp, #0]
    2c22:	4620      	mov	r0, r4
    2c24:	4629      	mov	r1, r5
    2c26:	beab      	bkpt	0x00ab
    2c28:	4604      	mov	r4, r0
    2c2a:	bf00      	nop

00002c2c <_kill>:
    2c2c:	2906      	cmp	r1, #6
    2c2e:	b508      	push	{r3, lr}
    2c30:	d002      	beq.n	2c38 <_kill+0xc>
    2c32:	4a03      	ldr	r2, [pc, #12]	; (2c40 <_kill+0x14>)
    2c34:	f7ff ffe2 	bl	2bfc <_kill_shared>
    2c38:	4a02      	ldr	r2, [pc, #8]	; (2c44 <_kill+0x18>)
    2c3a:	f7ff ffdf 	bl	2bfc <_kill_shared>
    2c3e:	bf00      	nop
    2c40:	00020026 	andeq	r0, r2, r6, lsr #32
    2c44:	00020023 	andeq	r0, r2, r3, lsr #32

00002c48 <__errno>:
    2c48:	4b01      	ldr	r3, [pc, #4]	; (2c50 <__errno+0x8>)
    2c4a:	6818      	ldr	r0, [r3, #0]
    2c4c:	4770      	bx	lr
    2c4e:	bf00      	nop
    2c50:	20000000 	andcs	r0, r0, r0

00002c54 <__fp_lock>:
    2c54:	2000      	movs	r0, #0
    2c56:	4770      	bx	lr

00002c58 <_cleanup_r>:
    2c58:	4901      	ldr	r1, [pc, #4]	; (2c60 <_cleanup_r+0x8>)
    2c5a:	f000 b927 	b.w	2eac <_fwalk_reent>
    2c5e:	bf00      	nop
    2c60:	0000316d 	andeq	r3, r0, sp, ror #2

00002c64 <__fp_unlock>:
    2c64:	2000      	movs	r0, #0
    2c66:	4770      	bx	lr

00002c68 <__sfmoreglue>:
    2c68:	b570      	push	{r4, r5, r6, lr}
    2c6a:	2568      	movs	r5, #104	; 0x68
    2c6c:	1e4a      	subs	r2, r1, #1
    2c6e:	fb05 f502 	mul.w	r5, r5, r2
    2c72:	460e      	mov	r6, r1
    2c74:	f105 0174 	add.w	r1, r5, #116	; 0x74
    2c78:	f7fe fe12 	bl	18a0 <_malloc_r>
    2c7c:	4604      	mov	r4, r0
    2c7e:	b140      	cbz	r0, 2c92 <__sfmoreglue+0x2a>
    2c80:	2100      	movs	r1, #0
    2c82:	300c      	adds	r0, #12
    2c84:	6066      	str	r6, [r4, #4]
    2c86:	f105 0268 	add.w	r2, r5, #104	; 0x68
    2c8a:	6021      	str	r1, [r4, #0]
    2c8c:	60a0      	str	r0, [r4, #8]
    2c8e:	f7fe fcbd 	bl	160c <memset>
    2c92:	4620      	mov	r0, r4
    2c94:	bd70      	pop	{r4, r5, r6, pc}
    2c96:	bf00      	nop

00002c98 <__sfp>:
    2c98:	4b1e      	ldr	r3, [pc, #120]	; (2d14 <__sfp+0x7c>)
    2c9a:	b570      	push	{r4, r5, r6, lr}
    2c9c:	681d      	ldr	r5, [r3, #0]
    2c9e:	4606      	mov	r6, r0
    2ca0:	69ab      	ldr	r3, [r5, #24]
    2ca2:	b343      	cbz	r3, 2cf6 <__sfp+0x5e>
    2ca4:	3548      	adds	r5, #72	; 0x48
    2ca6:	e9d5 3401 	ldrd	r3, r4, [r5, #4]
    2caa:	3b01      	subs	r3, #1
    2cac:	d505      	bpl.n	2cba <__sfp+0x22>
    2cae:	e01e      	b.n	2cee <__sfp+0x56>
    2cb0:	3b01      	subs	r3, #1
    2cb2:	1c5a      	adds	r2, r3, #1
    2cb4:	f104 0468 	add.w	r4, r4, #104	; 0x68
    2cb8:	d019      	beq.n	2cee <__sfp+0x56>
    2cba:	f9b4 200c 	ldrsh.w	r2, [r4, #12]
    2cbe:	2a00      	cmp	r2, #0
    2cc0:	d1f6      	bne.n	2cb0 <__sfp+0x18>
    2cc2:	2500      	movs	r5, #0
    2cc4:	4b14      	ldr	r3, [pc, #80]	; (2d18 <__sfp+0x80>)
    2cc6:	6665      	str	r5, [r4, #100]	; 0x64
    2cc8:	e9c4 5500 	strd	r5, r5, [r4]
    2ccc:	60a5      	str	r5, [r4, #8]
    2cce:	e9c4 5504 	strd	r5, r5, [r4, #16]
    2cd2:	61a5      	str	r5, [r4, #24]
    2cd4:	4629      	mov	r1, r5
    2cd6:	60e3      	str	r3, [r4, #12]
    2cd8:	2208      	movs	r2, #8
    2cda:	f104 005c 	add.w	r0, r4, #92	; 0x5c
    2cde:	f7fe fc95 	bl	160c <memset>
    2ce2:	e9c4 550d 	strd	r5, r5, [r4, #52]	; 0x34
    2ce6:	e9c4 5512 	strd	r5, r5, [r4, #72]	; 0x48
    2cea:	4620      	mov	r0, r4
    2cec:	bd70      	pop	{r4, r5, r6, pc}
    2cee:	6828      	ldr	r0, [r5, #0]
    2cf0:	b128      	cbz	r0, 2cfe <__sfp+0x66>
    2cf2:	4605      	mov	r5, r0
    2cf4:	e7d7      	b.n	2ca6 <__sfp+0xe>
    2cf6:	4628      	mov	r0, r5
    2cf8:	f000 f810 	bl	2d1c <__sinit.part.0>
    2cfc:	e7d2      	b.n	2ca4 <__sfp+0xc>
    2cfe:	2104      	movs	r1, #4
    2d00:	4630      	mov	r0, r6
    2d02:	f7ff ffb1 	bl	2c68 <__sfmoreglue>
    2d06:	6028      	str	r0, [r5, #0]
    2d08:	2800      	cmp	r0, #0
    2d0a:	d1f2      	bne.n	2cf2 <__sfp+0x5a>
    2d0c:	230c      	movs	r3, #12
    2d0e:	4604      	mov	r4, r0
    2d10:	6033      	str	r3, [r6, #0]
    2d12:	e7ea      	b.n	2cea <__sfp+0x52>
    2d14:	00003274 	andeq	r3, r0, r4, ror r2
    2d18:	ffff0001 			; <UNDEFINED> instruction: 0xffff0001

00002d1c <__sinit.part.0>:
    2d1c:	e92d 4ff8 	stmdb	sp!, {r3, r4, r5, r6, r7, r8, r9, sl, fp, lr}
    2d20:	2300      	movs	r3, #0
    2d22:	4a33      	ldr	r2, [pc, #204]	; (2df0 <__sinit.part.0+0xd4>)
    2d24:	e9c0 3312 	strd	r3, r3, [r0, #72]	; 0x48
    2d28:	6812      	ldr	r2, [r2, #0]
    2d2a:	6503      	str	r3, [r0, #80]	; 0x50
    2d2c:	4290      	cmp	r0, r2
    2d2e:	bf08      	it	eq
    2d30:	2301      	moveq	r3, #1
    2d32:	4930      	ldr	r1, [pc, #192]	; (2df4 <__sinit.part.0+0xd8>)
    2d34:	bf08      	it	eq
    2d36:	6183      	streq	r3, [r0, #24]
    2d38:	6281      	str	r1, [r0, #40]	; 0x28
    2d3a:	4605      	mov	r5, r0
    2d3c:	f7ff ffac 	bl	2c98 <__sfp>
    2d40:	6068      	str	r0, [r5, #4]
    2d42:	4628      	mov	r0, r5
    2d44:	f7ff ffa8 	bl	2c98 <__sfp>
    2d48:	60a8      	str	r0, [r5, #8]
    2d4a:	4628      	mov	r0, r5
    2d4c:	2400      	movs	r4, #0
    2d4e:	f7ff ffa3 	bl	2c98 <__sfp>
    2d52:	2304      	movs	r3, #4
    2d54:	686e      	ldr	r6, [r5, #4]
    2d56:	60e8      	str	r0, [r5, #12]
    2d58:	4621      	mov	r1, r4
    2d5a:	60f3      	str	r3, [r6, #12]
    2d5c:	6674      	str	r4, [r6, #100]	; 0x64
    2d5e:	e9c6 4400 	strd	r4, r4, [r6]
    2d62:	60b4      	str	r4, [r6, #8]
    2d64:	e9c6 4404 	strd	r4, r4, [r6, #16]
    2d68:	61b4      	str	r4, [r6, #24]
    2d6a:	f106 005c 	add.w	r0, r6, #92	; 0x5c
    2d6e:	2208      	movs	r2, #8
    2d70:	f7fe fc4c 	bl	160c <memset>
    2d74:	f8df b088 	ldr.w	fp, [pc, #136]	; 2e00 <__sinit.part.0+0xe4>
    2d78:	68af      	ldr	r7, [r5, #8]
    2d7a:	f8df a088 	ldr.w	sl, [pc, #136]	; 2e04 <__sinit.part.0+0xe8>
    2d7e:	f8df 9088 	ldr.w	r9, [pc, #136]	; 2e08 <__sinit.part.0+0xec>
    2d82:	f8df 8088 	ldr.w	r8, [pc, #136]	; 2e0c <__sinit.part.0+0xf0>
    2d86:	4b1c      	ldr	r3, [pc, #112]	; (2df8 <__sinit.part.0+0xdc>)
    2d88:	e9c6 6b08 	strd	r6, fp, [r6, #32]
    2d8c:	e9c6 a90a 	strd	sl, r9, [r6, #40]	; 0x28
    2d90:	f8c6 8030 	str.w	r8, [r6, #48]	; 0x30
    2d94:	4621      	mov	r1, r4
    2d96:	60fb      	str	r3, [r7, #12]
    2d98:	2208      	movs	r2, #8
    2d9a:	667c      	str	r4, [r7, #100]	; 0x64
    2d9c:	e9c7 4400 	strd	r4, r4, [r7]
    2da0:	60bc      	str	r4, [r7, #8]
    2da2:	e9c7 4404 	strd	r4, r4, [r7, #16]
    2da6:	61bc      	str	r4, [r7, #24]
    2da8:	f107 005c 	add.w	r0, r7, #92	; 0x5c
    2dac:	f7fe fc2e 	bl	160c <memset>
    2db0:	68ee      	ldr	r6, [r5, #12]
    2db2:	4b12      	ldr	r3, [pc, #72]	; (2dfc <__sinit.part.0+0xe0>)
    2db4:	e9c7 7b08 	strd	r7, fp, [r7, #32]
    2db8:	e9c7 a90a 	strd	sl, r9, [r7, #40]	; 0x28
    2dbc:	f8c7 8030 	str.w	r8, [r7, #48]	; 0x30
    2dc0:	4621      	mov	r1, r4
    2dc2:	60f3      	str	r3, [r6, #12]
    2dc4:	6674      	str	r4, [r6, #100]	; 0x64
    2dc6:	e9c6 4400 	strd	r4, r4, [r6]
    2dca:	60b4      	str	r4, [r6, #8]
    2dcc:	e9c6 4404 	strd	r4, r4, [r6, #16]
    2dd0:	61b4      	str	r4, [r6, #24]
    2dd2:	f106 005c 	add.w	r0, r6, #92	; 0x5c
    2dd6:	2208      	movs	r2, #8
    2dd8:	f7fe fc18 	bl	160c <memset>
    2ddc:	2301      	movs	r3, #1
    2dde:	e9c6 6b08 	strd	r6, fp, [r6, #32]
    2de2:	e9c6 a90a 	strd	sl, r9, [r6, #40]	; 0x28
    2de6:	f8c6 8030 	str.w	r8, [r6, #48]	; 0x30
    2dea:	61ab      	str	r3, [r5, #24]
    2dec:	e8bd 8ff8 	ldmia.w	sp!, {r3, r4, r5, r6, r7, r8, r9, sl, fp, pc}
    2df0:	00003274 	andeq	r3, r0, r4, ror r2
    2df4:	00002c59 	andeq	r2, r0, r9, asr ip
    2df8:	00010009 	andeq	r0, r1, r9
    2dfc:	00020012 	andeq	r0, r2, r2, lsl r0
    2e00:	00002efd 	strdeq	r2, [r0], -sp
    2e04:	00002f25 	andeq	r2, r0, r5, lsr #30
    2e08:	00002f61 	andeq	r2, r0, r1, ror #30
    2e0c:	00002f81 	andeq	r2, r0, r1, lsl #31

00002e10 <_cleanup>:
    2e10:	4b02      	ldr	r3, [pc, #8]	; (2e1c <_cleanup+0xc>)
    2e12:	4903      	ldr	r1, [pc, #12]	; (2e20 <_cleanup+0x10>)
    2e14:	6818      	ldr	r0, [r3, #0]
    2e16:	f000 b849 	b.w	2eac <_fwalk_reent>
    2e1a:	bf00      	nop
    2e1c:	00003274 	andeq	r3, r0, r4, ror r2
    2e20:	0000316d 	andeq	r3, r0, sp, ror #2

00002e24 <__sinit>:
    2e24:	6983      	ldr	r3, [r0, #24]
    2e26:	b903      	cbnz	r3, 2e2a <__sinit+0x6>
    2e28:	e778      	b.n	2d1c <__sinit.part.0>
    2e2a:	4770      	bx	lr

00002e2c <__sfp_lock_acquire>:
    2e2c:	4770      	bx	lr
    2e2e:	bf00      	nop

00002e30 <__sfp_lock_release>:
    2e30:	4770      	bx	lr
    2e32:	bf00      	nop

00002e34 <__sinit_lock_acquire>:
    2e34:	4770      	bx	lr
    2e36:	bf00      	nop

00002e38 <__sinit_lock_release>:
    2e38:	4770      	bx	lr
    2e3a:	bf00      	nop

00002e3c <__fp_lock_all>:
    2e3c:	4b02      	ldr	r3, [pc, #8]	; (2e48 <__fp_lock_all+0xc>)
    2e3e:	4903      	ldr	r1, [pc, #12]	; (2e4c <__fp_lock_all+0x10>)
    2e40:	6818      	ldr	r0, [r3, #0]
    2e42:	f000 b80f 	b.w	2e64 <_fwalk>
    2e46:	bf00      	nop
    2e48:	20000000 	andcs	r0, r0, r0
    2e4c:	00002c55 	andeq	r2, r0, r5, asr ip

00002e50 <__fp_unlock_all>:
    2e50:	4b02      	ldr	r3, [pc, #8]	; (2e5c <__fp_unlock_all+0xc>)
    2e52:	4903      	ldr	r1, [pc, #12]	; (2e60 <__fp_unlock_all+0x10>)
    2e54:	6818      	ldr	r0, [r3, #0]
    2e56:	f000 b805 	b.w	2e64 <_fwalk>
    2e5a:	bf00      	nop
    2e5c:	20000000 	andcs	r0, r0, r0
    2e60:	00002c65 	andeq	r2, r0, r5, ror #24

00002e64 <_fwalk>:
    2e64:	e92d 41f0 	stmdb	sp!, {r4, r5, r6, r7, r8, lr}
    2e68:	f110 0748 	adds.w	r7, r0, #72	; 0x48
    2e6c:	d01a      	beq.n	2ea4 <_fwalk+0x40>
    2e6e:	4688      	mov	r8, r1
    2e70:	2600      	movs	r6, #0
    2e72:	e9d7 5401 	ldrd	r5, r4, [r7, #4]
    2e76:	3d01      	subs	r5, #1
    2e78:	d40e      	bmi.n	2e98 <_fwalk+0x34>
    2e7a:	89a3      	ldrh	r3, [r4, #12]
    2e7c:	3d01      	subs	r5, #1
    2e7e:	2b01      	cmp	r3, #1
    2e80:	d906      	bls.n	2e90 <_fwalk+0x2c>
    2e82:	f9b4 300e 	ldrsh.w	r3, [r4, #14]
    2e86:	3301      	adds	r3, #1
    2e88:	d002      	beq.n	2e90 <_fwalk+0x2c>
    2e8a:	4620      	mov	r0, r4
    2e8c:	47c0      	blx	r8
    2e8e:	4306      	orrs	r6, r0
    2e90:	1c6b      	adds	r3, r5, #1
    2e92:	f104 0468 	add.w	r4, r4, #104	; 0x68
    2e96:	d1f0      	bne.n	2e7a <_fwalk+0x16>
    2e98:	683f      	ldr	r7, [r7, #0]
    2e9a:	2f00      	cmp	r7, #0
    2e9c:	d1e9      	bne.n	2e72 <_fwalk+0xe>
    2e9e:	4630      	mov	r0, r6
    2ea0:	e8bd 81f0 	ldmia.w	sp!, {r4, r5, r6, r7, r8, pc}
    2ea4:	463e      	mov	r6, r7
    2ea6:	4630      	mov	r0, r6
    2ea8:	e8bd 81f0 	ldmia.w	sp!, {r4, r5, r6, r7, r8, pc}

00002eac <_fwalk_reent>:
    2eac:	e92d 43f8 	stmdb	sp!, {r3, r4, r5, r6, r7, r8, r9, lr}
    2eb0:	f110 0648 	adds.w	r6, r0, #72	; 0x48
    2eb4:	d01e      	beq.n	2ef4 <_fwalk_reent+0x48>
    2eb6:	4688      	mov	r8, r1
    2eb8:	4607      	mov	r7, r0
    2eba:	f04f 0900 	mov.w	r9, #0
    2ebe:	e9d6 5401 	ldrd	r5, r4, [r6, #4]
    2ec2:	3d01      	subs	r5, #1
    2ec4:	d410      	bmi.n	2ee8 <_fwalk_reent+0x3c>
    2ec6:	89a3      	ldrh	r3, [r4, #12]
    2ec8:	3d01      	subs	r5, #1
    2eca:	2b01      	cmp	r3, #1
    2ecc:	d908      	bls.n	2ee0 <_fwalk_reent+0x34>
    2ece:	f9b4 300e 	ldrsh.w	r3, [r4, #14]
    2ed2:	3301      	adds	r3, #1
    2ed4:	d004      	beq.n	2ee0 <_fwalk_reent+0x34>
    2ed6:	4621      	mov	r1, r4
    2ed8:	4638      	mov	r0, r7
    2eda:	47c0      	blx	r8
    2edc:	ea49 0900 	orr.w	r9, r9, r0
    2ee0:	1c6b      	adds	r3, r5, #1
    2ee2:	f104 0468 	add.w	r4, r4, #104	; 0x68
    2ee6:	d1ee      	bne.n	2ec6 <_fwalk_reent+0x1a>
    2ee8:	6836      	ldr	r6, [r6, #0]
    2eea:	2e00      	cmp	r6, #0
    2eec:	d1e7      	bne.n	2ebe <_fwalk_reent+0x12>
    2eee:	4648      	mov	r0, r9
    2ef0:	e8bd 83f8 	ldmia.w	sp!, {r3, r4, r5, r6, r7, r8, r9, pc}
    2ef4:	46b1      	mov	r9, r6
    2ef6:	4648      	mov	r0, r9
    2ef8:	e8bd 83f8 	ldmia.w	sp!, {r3, r4, r5, r6, r7, r8, r9, pc}

00002efc <__sread>:
    2efc:	b510      	push	{r4, lr}
    2efe:	460c      	mov	r4, r1
    2f00:	f9b1 100e 	ldrsh.w	r1, [r1, #14]
    2f04:	f000 f98a 	bl	321c <_read_r>
    2f08:	2800      	cmp	r0, #0
    2f0a:	db03      	blt.n	2f14 <__sread+0x18>
    2f0c:	6d63      	ldr	r3, [r4, #84]	; 0x54
    2f0e:	4403      	add	r3, r0
    2f10:	6563      	str	r3, [r4, #84]	; 0x54
    2f12:	bd10      	pop	{r4, pc}
    2f14:	89a3      	ldrh	r3, [r4, #12]
    2f16:	f423 5380 	bic.w	r3, r3, #4096	; 0x1000
    2f1a:	81a3      	strh	r3, [r4, #12]
    2f1c:	bd10      	pop	{r4, pc}
    2f1e:	bf00      	nop

00002f20 <__seofread>:
    2f20:	2000      	movs	r0, #0
    2f22:	4770      	bx	lr

00002f24 <__swrite>:
    2f24:	e92d 41f0 	stmdb	sp!, {r4, r5, r6, r7, r8, lr}
    2f28:	f9b1 400c 	ldrsh.w	r4, [r1, #12]
    2f2c:	4698      	mov	r8, r3
    2f2e:	05e3      	lsls	r3, r4, #23
    2f30:	460d      	mov	r5, r1
    2f32:	4617      	mov	r7, r2
    2f34:	f9b1 100e 	ldrsh.w	r1, [r1, #14]
    2f38:	4606      	mov	r6, r0
    2f3a:	d507      	bpl.n	2f4c <__swrite+0x28>
    2f3c:	2302      	movs	r3, #2
    2f3e:	2200      	movs	r2, #0
    2f40:	f000 f956 	bl	31f0 <_lseek_r>
    2f44:	f9b5 400c 	ldrsh.w	r4, [r5, #12]
    2f48:	f9b5 100e 	ldrsh.w	r1, [r5, #14]
    2f4c:	f424 5480 	bic.w	r4, r4, #4096	; 0x1000
    2f50:	81ac      	strh	r4, [r5, #12]
    2f52:	4643      	mov	r3, r8
    2f54:	463a      	mov	r2, r7
    2f56:	4630      	mov	r0, r6
    2f58:	e8bd 41f0 	ldmia.w	sp!, {r4, r5, r6, r7, r8, lr}
    2f5c:	f000 b842 	b.w	2fe4 <_write_r>

00002f60 <__sseek>:
    2f60:	b510      	push	{r4, lr}
    2f62:	460c      	mov	r4, r1
    2f64:	f9b1 100e 	ldrsh.w	r1, [r1, #14]
    2f68:	f000 f942 	bl	31f0 <_lseek_r>
    2f6c:	89a3      	ldrh	r3, [r4, #12]
    2f6e:	1c42      	adds	r2, r0, #1
    2f70:	bf0e      	itee	eq
    2f72:	f423 5380 	biceq.w	r3, r3, #4096	; 0x1000
    2f76:	f443 5380 	orrne.w	r3, r3, #4096	; 0x1000
    2f7a:	6560      	strne	r0, [r4, #84]	; 0x54
    2f7c:	81a3      	strh	r3, [r4, #12]
    2f7e:	bd10      	pop	{r4, pc}

00002f80 <__sclose>:
    2f80:	f9b1 100e 	ldrsh.w	r1, [r1, #14]
    2f84:	f000 b844 	b.w	3010 <_close_r>

00002f88 <strlen>:
    2f88:	f020 0103 	bic.w	r1, r0, #3
    2f8c:	f010 0003 	ands.w	r0, r0, #3
    2f90:	f1c0 0000 	rsb	r0, r0, #0
    2f94:	f851 3b04 	ldr.w	r3, [r1], #4
    2f98:	f100 0c04 	add.w	ip, r0, #4
    2f9c:	ea4f 0ccc 	mov.w	ip, ip, lsl #3
    2fa0:	f06f 0200 	mvn.w	r2, #0
    2fa4:	bf1c      	itt	ne
    2fa6:	fa22 f20c 	lsrne.w	r2, r2, ip
    2faa:	4313      	orrne	r3, r2
    2fac:	f04f 0c01 	mov.w	ip, #1
    2fb0:	ea4c 2c0c 	orr.w	ip, ip, ip, lsl #8
    2fb4:	ea4c 4c0c 	orr.w	ip, ip, ip, lsl #16
    2fb8:	eba3 020c 	sub.w	r2, r3, ip
    2fbc:	ea22 0203 	bic.w	r2, r2, r3
    2fc0:	ea12 12cc 	ands.w	r2, r2, ip, lsl #7
    2fc4:	bf04      	itt	eq
    2fc6:	f851 3b04 	ldreq.w	r3, [r1], #4
    2fca:	3004      	addeq	r0, #4
    2fcc:	d0f4      	beq.n	2fb8 <strlen+0x30>
    2fce:	f1c2 0100 	rsb	r1, r2, #0
    2fd2:	ea02 0201 	and.w	r2, r2, r1
    2fd6:	fab2 f282 	clz	r2, r2
    2fda:	f1c2 021f 	rsb	r2, r2, #31
    2fde:	eb00 00d2 	add.w	r0, r0, r2, lsr #3
    2fe2:	4770      	bx	lr

00002fe4 <_write_r>:
    2fe4:	b5f8      	push	{r3, r4, r5, r6, r7, lr}
    2fe6:	460e      	mov	r6, r1
    2fe8:	2500      	movs	r5, #0
    2fea:	4c08      	ldr	r4, [pc, #32]	; (300c <_write_r+0x28>)
    2fec:	4611      	mov	r1, r2
    2fee:	4607      	mov	r7, r0
    2ff0:	461a      	mov	r2, r3
    2ff2:	4630      	mov	r0, r6
    2ff4:	6025      	str	r5, [r4, #0]
    2ff6:	f7ff fab7 	bl	2568 <_write>
    2ffa:	1c43      	adds	r3, r0, #1
    2ffc:	d000      	beq.n	3000 <_write_r+0x1c>
    2ffe:	bdf8      	pop	{r3, r4, r5, r6, r7, pc}
    3000:	6823      	ldr	r3, [r4, #0]
    3002:	2b00      	cmp	r3, #0
    3004:	d0fb      	beq.n	2ffe <_write_r+0x1a>
    3006:	603b      	str	r3, [r7, #0]
    3008:	bdf8      	pop	{r3, r4, r5, r6, r7, pc}
    300a:	bf00      	nop
    300c:	2000012c 	andcs	r0, r0, ip, lsr #2

00003010 <_close_r>:
    3010:	b538      	push	{r3, r4, r5, lr}
    3012:	2300      	movs	r3, #0
    3014:	4c06      	ldr	r4, [pc, #24]	; (3030 <_close_r+0x20>)
    3016:	4605      	mov	r5, r0
    3018:	4608      	mov	r0, r1
    301a:	6023      	str	r3, [r4, #0]
    301c:	f7ff faf4 	bl	2608 <_close>
    3020:	1c43      	adds	r3, r0, #1
    3022:	d000      	beq.n	3026 <_close_r+0x16>
    3024:	bd38      	pop	{r3, r4, r5, pc}
    3026:	6823      	ldr	r3, [r4, #0]
    3028:	2b00      	cmp	r3, #0
    302a:	d0fb      	beq.n	3024 <_close_r+0x14>
    302c:	602b      	str	r3, [r5, #0]
    302e:	bd38      	pop	{r3, r4, r5, pc}
    3030:	2000012c 	andcs	r0, r0, ip, lsr #2

00003034 <__sflush_r>:
    3034:	898b      	ldrh	r3, [r1, #12]
    3036:	e92d 41f0 	stmdb	sp!, {r4, r5, r6, r7, r8, lr}
    303a:	071a      	lsls	r2, r3, #28
    303c:	460c      	mov	r4, r1
    303e:	4680      	mov	r8, r0
    3040:	d43b      	bmi.n	30ba <__sflush_r+0x86>
    3042:	684a      	ldr	r2, [r1, #4]
    3044:	2a00      	cmp	r2, #0
    3046:	dd54      	ble.n	30f2 <__sflush_r+0xbe>
    3048:	6ae5      	ldr	r5, [r4, #44]	; 0x2c
    304a:	2d00      	cmp	r5, #0
    304c:	d04e      	beq.n	30ec <__sflush_r+0xb8>
    304e:	2200      	movs	r2, #0
    3050:	f8d8 6000 	ldr.w	r6, [r8]
    3054:	6a21      	ldr	r1, [r4, #32]
    3056:	f8c8 2000 	str.w	r2, [r8]
    305a:	f413 5280 	ands.w	r2, r3, #4096	; 0x1000
    305e:	d17c      	bne.n	315a <__sflush_r+0x126>
    3060:	2301      	movs	r3, #1
    3062:	4640      	mov	r0, r8
    3064:	47a8      	blx	r5
    3066:	1c43      	adds	r3, r0, #1
    3068:	d047      	beq.n	30fa <__sflush_r+0xc6>
    306a:	89a3      	ldrh	r3, [r4, #12]
    306c:	6ae5      	ldr	r5, [r4, #44]	; 0x2c
    306e:	6a21      	ldr	r1, [r4, #32]
    3070:	075f      	lsls	r7, r3, #29
    3072:	d505      	bpl.n	3080 <__sflush_r+0x4c>
    3074:	6862      	ldr	r2, [r4, #4]
    3076:	6b63      	ldr	r3, [r4, #52]	; 0x34
    3078:	1a80      	subs	r0, r0, r2
    307a:	b10b      	cbz	r3, 3080 <__sflush_r+0x4c>
    307c:	6c23      	ldr	r3, [r4, #64]	; 0x40
    307e:	1ac0      	subs	r0, r0, r3
    3080:	4602      	mov	r2, r0
    3082:	2300      	movs	r3, #0
    3084:	4640      	mov	r0, r8
    3086:	47a8      	blx	r5
    3088:	1c45      	adds	r5, r0, #1
    308a:	d042      	beq.n	3112 <__sflush_r+0xde>
    308c:	2300      	movs	r3, #0
    308e:	6063      	str	r3, [r4, #4]
    3090:	89a3      	ldrh	r3, [r4, #12]
    3092:	6922      	ldr	r2, [r4, #16]
    3094:	04db      	lsls	r3, r3, #19
    3096:	6022      	str	r2, [r4, #0]
    3098:	d500      	bpl.n	309c <__sflush_r+0x68>
    309a:	6560      	str	r0, [r4, #84]	; 0x54
    309c:	6b61      	ldr	r1, [r4, #52]	; 0x34
    309e:	f8c8 6000 	str.w	r6, [r8]
    30a2:	b319      	cbz	r1, 30ec <__sflush_r+0xb8>
    30a4:	f104 0344 	add.w	r3, r4, #68	; 0x44
    30a8:	4299      	cmp	r1, r3
    30aa:	d002      	beq.n	30b2 <__sflush_r+0x7e>
    30ac:	4640      	mov	r0, r8
    30ae:	f7ff f909 	bl	22c4 <_free_r>
    30b2:	2000      	movs	r0, #0
    30b4:	6360      	str	r0, [r4, #52]	; 0x34
    30b6:	e8bd 81f0 	ldmia.w	sp!, {r4, r5, r6, r7, r8, pc}
    30ba:	690e      	ldr	r6, [r1, #16]
    30bc:	b1b6      	cbz	r6, 30ec <__sflush_r+0xb8>
    30be:	079a      	lsls	r2, r3, #30
    30c0:	bf18      	it	ne
    30c2:	2300      	movne	r3, #0
    30c4:	680d      	ldr	r5, [r1, #0]
    30c6:	bf08      	it	eq
    30c8:	694b      	ldreq	r3, [r1, #20]
    30ca:	600e      	str	r6, [r1, #0]
    30cc:	1bad      	subs	r5, r5, r6
    30ce:	608b      	str	r3, [r1, #8]
    30d0:	e00a      	b.n	30e8 <__sflush_r+0xb4>
    30d2:	462b      	mov	r3, r5
    30d4:	4632      	mov	r2, r6
    30d6:	6aa7      	ldr	r7, [r4, #40]	; 0x28
    30d8:	6a21      	ldr	r1, [r4, #32]
    30da:	4640      	mov	r0, r8
    30dc:	47b8      	blx	r7
    30de:	2800      	cmp	r0, #0
    30e0:	eba5 0500 	sub.w	r5, r5, r0
    30e4:	4406      	add	r6, r0
    30e6:	dd28      	ble.n	313a <__sflush_r+0x106>
    30e8:	2d00      	cmp	r5, #0
    30ea:	dcf2      	bgt.n	30d2 <__sflush_r+0x9e>
    30ec:	2000      	movs	r0, #0
    30ee:	e8bd 81f0 	ldmia.w	sp!, {r4, r5, r6, r7, r8, pc}
    30f2:	6c0a      	ldr	r2, [r1, #64]	; 0x40
    30f4:	2a00      	cmp	r2, #0
    30f6:	dca7      	bgt.n	3048 <__sflush_r+0x14>
    30f8:	e7f8      	b.n	30ec <__sflush_r+0xb8>
    30fa:	f8d8 3000 	ldr.w	r3, [r8]
    30fe:	2b00      	cmp	r3, #0
    3100:	d0b3      	beq.n	306a <__sflush_r+0x36>
    3102:	2b1d      	cmp	r3, #29
    3104:	d001      	beq.n	310a <__sflush_r+0xd6>
    3106:	2b16      	cmp	r3, #22
    3108:	d129      	bne.n	315e <__sflush_r+0x12a>
    310a:	f8c8 6000 	str.w	r6, [r8]
    310e:	2000      	movs	r0, #0
    3110:	e7ed      	b.n	30ee <__sflush_r+0xba>
    3112:	f8d8 2000 	ldr.w	r2, [r8]
    3116:	2a1d      	cmp	r2, #29
    3118:	d817      	bhi.n	314a <__sflush_r+0x116>
    311a:	4b13      	ldr	r3, [pc, #76]	; (3168 <__sflush_r+0x134>)
    311c:	f9b4 100c 	ldrsh.w	r1, [r4, #12]
    3120:	40d3      	lsrs	r3, r2
    3122:	43db      	mvns	r3, r3
    3124:	f013 0301 	ands.w	r3, r3, #1
    3128:	d111      	bne.n	314e <__sflush_r+0x11a>
    312a:	6925      	ldr	r5, [r4, #16]
    312c:	04c9      	lsls	r1, r1, #19
    312e:	e9c4 5300 	strd	r5, r3, [r4]
    3132:	d5b3      	bpl.n	309c <__sflush_r+0x68>
    3134:	2a00      	cmp	r2, #0
    3136:	d1b1      	bne.n	309c <__sflush_r+0x68>
    3138:	e7af      	b.n	309a <__sflush_r+0x66>
    313a:	89a3      	ldrh	r3, [r4, #12]
    313c:	f04f 30ff 	mov.w	r0, #4294967295	; 0xffffffff
    3140:	f043 0340 	orr.w	r3, r3, #64	; 0x40
    3144:	81a3      	strh	r3, [r4, #12]
    3146:	e8bd 81f0 	ldmia.w	sp!, {r4, r5, r6, r7, r8, pc}
    314a:	f9b4 100c 	ldrsh.w	r1, [r4, #12]
    314e:	f041 0140 	orr.w	r1, r1, #64	; 0x40
    3152:	81a1      	strh	r1, [r4, #12]
    3154:	f04f 30ff 	mov.w	r0, #4294967295	; 0xffffffff
    3158:	e7c9      	b.n	30ee <__sflush_r+0xba>
    315a:	6d60      	ldr	r0, [r4, #84]	; 0x54
    315c:	e788      	b.n	3070 <__sflush_r+0x3c>
    315e:	89a3      	ldrh	r3, [r4, #12]
    3160:	f043 0340 	orr.w	r3, r3, #64	; 0x40
    3164:	81a3      	strh	r3, [r4, #12]
    3166:	e7c2      	b.n	30ee <__sflush_r+0xba>
    3168:	20400001 	subcs	r0, r0, r1

0000316c <_fflush_r>:
    316c:	690b      	ldr	r3, [r1, #16]
    316e:	b323      	cbz	r3, 31ba <_fflush_r+0x4e>
    3170:	b510      	push	{r4, lr}
    3172:	4604      	mov	r4, r0
    3174:	b082      	sub	sp, #8
    3176:	b108      	cbz	r0, 317c <_fflush_r+0x10>
    3178:	6983      	ldr	r3, [r0, #24]
    317a:	b1bb      	cbz	r3, 31ac <_fflush_r+0x40>
    317c:	4b10      	ldr	r3, [pc, #64]	; (31c0 <_fflush_r+0x54>)
    317e:	4299      	cmp	r1, r3
    3180:	d012      	beq.n	31a8 <_fflush_r+0x3c>
    3182:	4b10      	ldr	r3, [pc, #64]	; (31c4 <_fflush_r+0x58>)
    3184:	4299      	cmp	r1, r3
    3186:	d016      	beq.n	31b6 <_fflush_r+0x4a>
    3188:	4b0f      	ldr	r3, [pc, #60]	; (31c8 <_fflush_r+0x5c>)
    318a:	4299      	cmp	r1, r3
    318c:	bf08      	it	eq
    318e:	68e1      	ldreq	r1, [r4, #12]
    3190:	f9b1 300c 	ldrsh.w	r3, [r1, #12]
    3194:	b913      	cbnz	r3, 319c <_fflush_r+0x30>
    3196:	2000      	movs	r0, #0
    3198:	b002      	add	sp, #8
    319a:	bd10      	pop	{r4, pc}
    319c:	4620      	mov	r0, r4
    319e:	b002      	add	sp, #8
    31a0:	e8bd 4010 	ldmia.w	sp!, {r4, lr}
    31a4:	f7ff bf46 	b.w	3034 <__sflush_r>
    31a8:	6861      	ldr	r1, [r4, #4]
    31aa:	e7f1      	b.n	3190 <_fflush_r+0x24>
    31ac:	9101      	str	r1, [sp, #4]
    31ae:	f7ff fe39 	bl	2e24 <__sinit>
    31b2:	9901      	ldr	r1, [sp, #4]
    31b4:	e7e2      	b.n	317c <_fflush_r+0x10>
    31b6:	68a1      	ldr	r1, [r4, #8]
    31b8:	e7ea      	b.n	3190 <_fflush_r+0x24>
    31ba:	2000      	movs	r0, #0
    31bc:	4770      	bx	lr
    31be:	bf00      	nop
    31c0:	00003310 	andeq	r3, r0, r0, lsl r3
    31c4:	000032f0 	strdeq	r3, [r0], -r0
    31c8:	000032d0 	ldrdeq	r3, [r0], -r0

000031cc <fflush>:
    31cc:	b120      	cbz	r0, 31d8 <fflush+0xc>
    31ce:	4b05      	ldr	r3, [pc, #20]	; (31e4 <fflush+0x18>)
    31d0:	4601      	mov	r1, r0
    31d2:	6818      	ldr	r0, [r3, #0]
    31d4:	f7ff bfca 	b.w	316c <_fflush_r>
    31d8:	4b03      	ldr	r3, [pc, #12]	; (31e8 <fflush+0x1c>)
    31da:	4904      	ldr	r1, [pc, #16]	; (31ec <fflush+0x20>)
    31dc:	6818      	ldr	r0, [r3, #0]
    31de:	f7ff be65 	b.w	2eac <_fwalk_reent>
    31e2:	bf00      	nop
    31e4:	20000000 	andcs	r0, r0, r0
    31e8:	00003274 	andeq	r3, r0, r4, ror r2
    31ec:	0000316d 	andeq	r3, r0, sp, ror #2

000031f0 <_lseek_r>:
    31f0:	b5f8      	push	{r3, r4, r5, r6, r7, lr}
    31f2:	460e      	mov	r6, r1
    31f4:	2500      	movs	r5, #0
    31f6:	4c08      	ldr	r4, [pc, #32]	; (3218 <_lseek_r+0x28>)
    31f8:	4611      	mov	r1, r2
    31fa:	4607      	mov	r7, r0
    31fc:	461a      	mov	r2, r3
    31fe:	4630      	mov	r0, r6
    3200:	6025      	str	r5, [r4, #0]
    3202:	f7ff f99b 	bl	253c <_lseek>
    3206:	1c43      	adds	r3, r0, #1
    3208:	d000      	beq.n	320c <_lseek_r+0x1c>
    320a:	bdf8      	pop	{r3, r4, r5, r6, r7, pc}
    320c:	6823      	ldr	r3, [r4, #0]
    320e:	2b00      	cmp	r3, #0
    3210:	d0fb      	beq.n	320a <_lseek_r+0x1a>
    3212:	603b      	str	r3, [r7, #0]
    3214:	bdf8      	pop	{r3, r4, r5, r6, r7, pc}
    3216:	bf00      	nop
    3218:	2000012c 	andcs	r0, r0, ip, lsr #2

0000321c <_read_r>:
    321c:	b5f8      	push	{r3, r4, r5, r6, r7, lr}
    321e:	460e      	mov	r6, r1
    3220:	2500      	movs	r5, #0
    3222:	4c08      	ldr	r4, [pc, #32]	; (3244 <_read_r+0x28>)
    3224:	4611      	mov	r1, r2
    3226:	4607      	mov	r7, r0
    3228:	461a      	mov	r2, r3
    322a:	4630      	mov	r0, r6
    322c:	6025      	str	r5, [r4, #0]
    322e:	f7ff f907 	bl	2440 <_read>
    3232:	1c43      	adds	r3, r0, #1
    3234:	d000      	beq.n	3238 <_read_r+0x1c>
    3236:	bdf8      	pop	{r3, r4, r5, r6, r7, pc}
    3238:	6823      	ldr	r3, [r4, #0]
    323a:	2b00      	cmp	r3, #0
    323c:	d0fb      	beq.n	3236 <_read_r+0x1a>
    323e:	603b      	str	r3, [r7, #0]
    3240:	bdf8      	pop	{r3, r4, r5, r6, r7, pc}
    3242:	bf00      	nop
    3244:	2000012c 	andcs	r0, r0, ip, lsr #2
    3248:	00006325 	andeq	r6, r0, r5, lsr #6
    324c:	00007825 	andeq	r7, r0, r5, lsr #16
    3250:	746e6f43 	strbtvc	r6, [lr], #-3907	; 0xfffff0bd
    3254:	206c6f72 	rsbcs	r6, ip, r2, ror pc
    3258:	78257830 	stmdavc	r5!, {r4, r5, fp, ip, sp, lr}
    325c:	5053500a 	subspl	r5, r3, sl
    3260:	25783020 	ldrbcs	r3, [r8, #-32]!	; 0xffffffe0
    3264:	534d0a78 	movtpl	r0, #55928	; 0xda78
    3268:	78302050 	ldmdavc	r0!, {r4, r6, sp}
    326c:	0a0a7825 	beq	2a1308 <__ROM_SIZE+0x261308>
    3270:	00000000 	andeq	r0, r0, r0

00003274 <_global_impure_ptr>:
    3274:	20000004 	andcs	r0, r0, r4
    3278:	2b302d23 	blcs	c0e70c <__ROM_SIZE+0xbce70c>
    327c:	00000020 	andeq	r0, r0, r0, lsr #32
    3280:	004c6c68 	subeq	r6, ip, r8, ror #24
    3284:	45676665 	strbmi	r6, [r7, #-1637]!	; 0xfffff99b
    3288:	00004746 	andeq	r4, r0, r6, asr #14
    328c:	33323130 	teqcc	r2, #48, 2
    3290:	37363534 			; <UNDEFINED> instruction: 0x37363534
    3294:	42413938 	submi	r3, r1, #56, 18	; 0xe0000
    3298:	46454443 	strbmi	r4, [r5], -r3, asr #8
    329c:	00000000 	andeq	r0, r0, r0
    32a0:	33323130 	teqcc	r2, #48, 2
    32a4:	37363534 			; <UNDEFINED> instruction: 0x37363534
    32a8:	62613938 	rsbvs	r3, r1, #56, 18	; 0xe0000
    32ac:	66656463 	strbtvs	r6, [r5], -r3, ror #8
    32b0:	00000000 	andeq	r0, r0, r0
    32b4:	6d65733a 	stclvs	3, cr7, [r5, #-232]!	; 0xffffff18
    32b8:	736f6869 	cmnvc	pc, #6881280	; 0x690000
    32bc:	676e6974 			; <UNDEFINED> instruction: 0x676e6974
    32c0:	6165662d 	cmnvs	r5, sp, lsr #12
    32c4:	65727574 	ldrbvs	r7, [r2, #-1396]!	; 0xfffffa8c
    32c8:	00000073 	andeq	r0, r0, r3, ror r0
    32cc:	0074743a 	rsbseq	r7, r4, sl, lsr r4

000032d0 <__sf_fake_stderr>:
	...

000032f0 <__sf_fake_stdout>:
	...

00003310 <__sf_fake_stdin>:
	...

Disassembly of section .copy.table:

00003408 <__copy_table_start__>:
    3408:	00003414 	andeq	r3, r0, r4, lsl r4
    340c:	20000000 	andcs	r0, r0, r0
    3410:	00000074 	andeq	r0, r0, r4, ror r0
